(lp0
(cnumpy.core.multiarray
scalar
p1
(cnumpy
dtype
p2
(S'f8'
p3
I0
I1
tp4
Rp5
(I3
S'<'
p6
NNNI-1
I-1
I0
tp7
bS'\x00\x00\x00\x00\x00\x88v@'
p8
tp9
Rp10
S'ENVO:organism-associated habitat (n=410)'
p11
(lp12
I149
aI516
aI404
aI339
aI635
aI634
aI501
aI1139
aI588
aI256
aI137
aI438
aI6667
aI5989
aI188
aI525
aI554
aI483
aI752
aI97
aI886
aI307
aI344
aI324
aI425
aI68
aI97
aI35
aI4
aI156
aI772
aI776
aI224
aI479
aI708
aI529
aI234
aI158
aI499
aI561
aI493
aI341
aI148
aI591
aI0
aI281
aI448
aI433
aI145
aI874
aI426
aI241
aI483
aI296
aI223
aI349
aI556
aI291
aI379
aI212
aI405
aI883
aI457
aI293
aI211
aI70
aI728
aI64
aI565
aI474
aI537
aI334
aI500
aI234
aI261
aI918
aI256
aI65
aI141
aI187
aI8468
aI476
aI456
aI376
aI713
aI565
aI282
aI107
aI305
aI393
aI442
aI137
aI674
aI681
aI150
aI566
aI168
aI656
aI363
aI631
aI430
aI0
aI517
aI360
aI0
aI361
aI266
aI504
aI258
aI320
aI1199
aI505
aI198
aI287
aI201
aI333
aI315
aI156
aI586
aI417
aI154
aI313
aI432
aI306
aI810
aI345
aI358
aI218
aI1275
aI218
aI441
aI126
aI575
aI305
aI312
aI492
aI245
aI390
aI71
aI791
aI245
aI399
aI272
aI264
aI689
aI472
aI126
aI303
aI267
aI243
aI266
aI259
aI278
aI91
aI227
aI453
aI319
aI503
aI0
aI300
aI238
aI366
aI565
aI681
aI404
aI527
aI376
aI174
aI326
aI745
aI106
aI102
aI143
aI370
aI995
aI450
aI67
aI1170
aI366
aI566
aI526
aI778
aI373
aI938
aI410
aI259
aI79
aI206
aI231
aI347
aI316
aI0
aI253
aI464
aI887
aI156
aI902
aI728
aI133
aI560
aI435
aI315
aI449
aI841
aI276
aI411
aI140
aI514
aI580
aI154
aI273
aI370
aI542
aI328
aI446
aI295
aI656
aI414
aI556
aI358
aI149
aI405
aI575
aI600
aI118
aI367
aI1099
aI954
aI150
aI438
aI556
aI163
aI481
aI2
aI119
aI631
aI339
aI1422
aI528
aI2940
aI494
aI279
aI719
aI242
aI831
aI364
aI404
aI899
aI1237
aI532
aI130
aI0
aI285
aI355
aI327
aI168
aI368
aI200
aI400
aI1215
aI419
aI246
aI402
aI688
aI1090
aI402
aI611
aI1
aI538
aI559
aI204
aI545
aI173
aI389
aI1294
aI547
aI197
aI879
aI175
aI819
aI398
aI237
aI147
aI356
aI270
aI276
aI90
aI81
aI251
aI156
aI116
aI0
aI508
aI1389
aI416
aI469
aI256
aI804
aI1312
aI374
aI1181
aI411
aI1006
aI659
aI451
aI206
aI502
aI151
aI491
aI2329
aI556
aI292
aI703
aI462
aI294
aI196
aI272
aI328
aI466
aI292
aI718
aI198
aI544
aI316
aI458
aI0
aI51
aI351
aI251
aI2729
aI0
aI201
aI204
aI207
aI241
aI573
aI276
aI309
aI311
aI226
aI519
aI326
aI0
aI492
aI220
aI357
aI278
aI173
aI129
aI530
aI331
aI223
aI355
aI111
aI204
aI371
aI160
aI1
aI1463
aI0
aI144
aI284
aI920
aI554
aI737
aI258
aI216
aI798
aI310
aI393
aI166
aI381
aI296
aI0
aI356
aI701
aI210
aI221
aI415
aI483
aI62
aI0
aI452
aI810
aI425
aI1208
aI280
aI910
aI723
aI473
aI340
aI226
aI347
aI438
aI477
aI240
aI150
aI513
aI402
aI364
aI464
aI329
aI661
aI311
aI398
aI777
aI219
aI599
aI138
aI189
atp13
a(g1
(g5
S'\x00\x00\x00\x00\x00\xf0\x85@'
p14
tp15
Rp16
S'ENVO:human-associated habitat (n=2045)'
p17
(lp18
I1748
aI1208
aI849
aI976
aI711
aI1039
aI674
aI513
aI216
aI1099
aI1407
aI367
aI437
aI822
aI917
aI857
aI1930
aI365
aI1214
aI762
aI746
aI2528
aI842
aI493
aI613
aI453
aI6590
aI89
aI790
aI582
aI154
aI3308
aI509
aI5827
aI1236
aI158
aI240
aI1101
aI223
aI2068
aI447
aI19
aI2284
aI421
aI2715
aI863
aI182
aI782
aI3390
aI931
aI241
aI1028
aI1191
aI618
aI576
aI194
aI229
aI460
aI3715
aI538
aI938
aI2010
aI1027
aI176
aI944
aI110
aI910
aI6012
aI550
aI1929
aI100
aI2535
aI769
aI1858
aI506
aI967
aI1743
aI732
aI1071
aI222
aI736
aI1135
aI209
aI1194
aI1341
aI1178
aI2068
aI215
aI449
aI1814
aI273
aI671
aI1635
aI1057
aI486
aI727
aI916
aI511
aI1979
aI1016
aI570
aI664
aI567
aI4511
aI1591
aI735
aI151
aI1014
aI189
aI552
aI602
aI2153
aI182
aI707
aI154
aI155
aI1177
aI569
aI817
aI656
aI1335
aI855
aI487
aI1473
aI472
aI265
aI621
aI3023
aI2781
aI534
aI854
aI518
aI150
aI1031
aI472
aI1326
aI198
aI1210
aI786
aI1040
aI730
aI513
aI3021
aI668
aI212
aI1192
aI498
aI160
aI1146
aI3056
aI673
aI162
aI786
aI576
aI794
aI3467
aI84
aI679
aI1336
aI1577
aI1544
aI178
aI485
aI1410
aI890
aI1447
aI523
aI195
aI540
aI2873
aI1648
aI242
aI7536
aI483
aI583
aI1731
aI372
aI539
aI401
aI771
aI464
aI517
aI722
aI1081
aI928
aI513
aI87
aI1096
aI279
aI242
aI227
aI59
aI853
aI657
aI223
aI604
aI101
aI1027
aI517
aI654
aI1535
aI2870
aI1660
aI1181
aI138
aI520
aI189
aI1096
aI679
aI1758
aI332
aI1051
aI826
aI1049
aI415
aI332
aI225
aI2717
aI222
aI476
aI1235
aI387
aI635
aI620
aI1501
aI1433
aI456
aI869
aI492
aI233
aI673
aI3099
aI1132
aI997
aI1323
aI2841
aI1028
aI566
aI999
aI94
aI654
aI211
aI402
aI743
aI912
aI2317
aI892
aI3850
aI2343
aI1092
aI500
aI999
aI47
aI140
aI158
aI1054
aI720
aI539
aI212
aI254
aI2755
aI1385
aI650
aI2491
aI565
aI668
aI654
aI102
aI1079
aI788
aI760
aI237
aI275
aI317
aI259
aI531
aI187
aI517
aI981
aI253
aI1176
aI980
aI530
aI770
aI339
aI714
aI453
aI372
aI590
aI127
aI723
aI300
aI1117
aI938
aI963
aI518
aI920
aI1680
aI1103
aI222
aI1886
aI555
aI2049
aI1256
aI1264
aI365
aI148
aI1262
aI707
aI1204
aI162
aI807
aI449
aI264
aI754
aI536
aI1048
aI1407
aI2198
aI453
aI321
aI1689
aI2127
aI5263
aI548
aI3794
aI4667
aI1020
aI509
aI207
aI524
aI2338
aI336
aI505
aI553
aI493
aI226
aI926
aI187
aI2196
aI1882
aI467
aI1144
aI717
aI808
aI396
aI1066
aI646
aI1860
aI531
aI3408
aI241
aI1060
aI875
aI190
aI690
aI2024
aI169
aI811
aI3788
aI521
aI1226
aI1514
aI2376
aI1041
aI403
aI344
aI795
aI1576
aI789
aI238
aI844
aI1284
aI1627
aI712
aI1342
aI210
aI353
aI477
aI1031
aI2467
aI1195
aI984
aI602
aI663
aI601
aI831
aI243
aI243
aI2081
aI441
aI221
aI145
aI2379
aI320
aI1011
aI1652
aI3251
aI1109
aI1229
aI537
aI454
aI246
aI2459
aI633
aI93
aI1625
aI1201
aI940
aI557
aI220
aI164
aI143
aI1428
aI158
aI659
aI2538
aI78
aI1341
aI193
aI993
aI692
aI3340
aI1563
aI597
aI697
aI568
aI163
aI551
aI148
aI815
aI183
aI1080
aI538
aI165
aI2131
aI154
aI186
aI223
aI1115
aI957
aI258
aI1052
aI1081
aI157
aI1453
aI273
aI562
aI1765
aI546
aI212
aI244
aI577
aI1840
aI166
aI476
aI2207
aI1327
aI919
aI1265
aI380
aI496
aI1764
aI261
aI989
aI1105
aI246
aI335
aI4246
aI616
aI209
aI516
aI667
aI207
aI562
aI110
aI758
aI1046
aI677
aI941
aI221
aI406
aI458
aI349
aI392
aI557
aI853
aI1301
aI1258
aI415
aI792
aI171
aI405
aI966
aI925
aI704
aI2252
aI1814
aI176
aI1061
aI559
aI229
aI749
aI447
aI846
aI491
aI663
aI1035
aI297
aI1650
aI819
aI2757
aI1574
aI1049
aI748
aI993
aI2349
aI1242
aI550
aI1045
aI722
aI1029
aI594
aI435
aI811
aI1794
aI1080
aI658
aI639
aI149
aI632
aI1335
aI769
aI280
aI1151
aI560
aI2130
aI1054
aI252
aI179
aI902
aI518
aI311
aI1008
aI567
aI353
aI539
aI461
aI866
aI925
aI2220
aI1510
aI454
aI572
aI160
aI240
aI1027
aI195
aI997
aI693
aI639
aI186
aI481
aI1050
aI973
aI787
aI521
aI828
aI911
aI750
aI1609
aI247
aI203
aI1167
aI2148
aI272
aI835
aI1353
aI763
aI947
aI224
aI1014
aI550
aI548
aI1546
aI1115
aI2187
aI18
aI650
aI1511
aI521
aI247
aI1139
aI552
aI467
aI974
aI1073
aI613
aI440
aI904
aI645
aI271
aI208
aI1245
aI723
aI1720
aI213
aI281
aI2924
aI683
aI514
aI929
aI559
aI971
aI534
aI1214
aI762
aI4724
aI542
aI506
aI234
aI249
aI743
aI798
aI1557
aI241
aI91
aI579
aI1139
aI2320
aI283
aI287
aI1014
aI1183
aI546
aI269
aI123
aI232
aI740
aI1092
aI1385
aI708
aI1117
aI557
aI614
aI5655
aI1437
aI513
aI707
aI1036
aI1010
aI151
aI1290
aI567
aI415
aI1595
aI519
aI1093
aI491
aI524
aI174
aI535
aI1167
aI989
aI629
aI850
aI2532
aI470
aI47
aI694
aI281
aI214
aI1291
aI880
aI215
aI917
aI800
aI1718
aI390
aI2829
aI4888
aI199
aI992
aI186
aI520
aI213
aI1617
aI655
aI808
aI1257
aI1351
aI1866
aI1022
aI1693
aI685
aI880
aI651
aI540
aI927
aI864
aI263
aI763
aI1201
aI1140
aI990
aI1904
aI531
aI712
aI357
aI1118
aI878
aI763
aI814
aI1672
aI199
aI2277
aI848
aI187
aI126
aI1157
aI1514
aI1546
aI215
aI1639
aI382
aI493
aI902
aI530
aI320
aI175
aI637
aI124
aI193
aI1224
aI141
aI1135
aI249
aI545
aI55
aI492
aI230
aI798
aI216
aI615
aI1211
aI2056
aI46
aI849
aI605
aI680
aI871
aI380
aI1186
aI459
aI786
aI1133
aI942
aI764
aI619
aI2254
aI724
aI777
aI1928
aI2043
aI1290
aI172
aI754
aI175
aI573
aI302
aI5708
aI265
aI487
aI404
aI231
aI406
aI565
aI1051
aI1337
aI304
aI777
aI991
aI181
aI674
aI239
aI840
aI224
aI476
aI474
aI927
aI267
aI653
aI5143
aI519
aI1166
aI637
aI497
aI770
aI1133
aI515
aI2722
aI767
aI1133
aI118
aI258
aI2346
aI282
aI1595
aI213
aI702
aI1095
aI427
aI1431
aI880
aI991
aI1535
aI185
aI228
aI796
aI910
aI500
aI941
aI1077
aI581
aI267
aI1053
aI891
aI517
aI781
aI743
aI542
aI1144
aI4243
aI191
aI268
aI578
aI176
aI1300
aI440
aI500
aI848
aI551
aI1203
aI836
aI520
aI153
aI250
aI515
aI919
aI231
aI988
aI860
aI1094
aI1392
aI365
aI545
aI1212
aI3178
aI980
aI1406
aI269
aI523
aI452
aI767
aI143
aI197
aI2589
aI507
aI162
aI1961
aI781
aI617
aI1235
aI1507
aI250
aI993
aI208
aI547
aI1675
aI1330
aI594
aI1752
aI1048
aI475
aI887
aI1077
aI425
aI931
aI238
aI597
aI2342
aI535
aI582
aI1104
aI638
aI429
aI1240
aI631
aI561
aI116
aI899
aI256
aI356
aI499
aI900
aI435
aI818
aI175
aI1435
aI2183
aI198
aI331
aI515
aI853
aI3359
aI394
aI1172
aI1386
aI844
aI703
aI218
aI559
aI406
aI518
aI1163
aI684
aI729
aI966
aI1015
aI1437
aI958
aI89
aI166
aI350
aI264
aI877
aI1582
aI579
aI389
aI1910
aI235
aI157
aI198
aI273
aI631
aI1454
aI516
aI1863
aI367
aI614
aI190
aI937
aI587
aI1013
aI1012
aI508
aI970
aI608
aI723
aI530
aI742
aI1979
aI1289
aI1191
aI242
aI1610
aI1103
aI1792
aI522
aI555
aI371
aI693
aI182
aI688
aI1043
aI1029
aI1334
aI342
aI1157
aI799
aI166
aI133
aI2311
aI202
aI192
aI182
aI228
aI1512
aI486
aI465
aI300
aI565
aI239
aI1675
aI2164
aI1203
aI651
aI190
aI189
aI2103
aI586
aI171
aI630
aI293
aI553
aI76
aI1641
aI556
aI855
aI882
aI1199
aI565
aI3392
aI468
aI2345
aI809
aI1639
aI203
aI644
aI818
aI275
aI686
aI236
aI668
aI1992
aI942
aI1548
aI1061
aI2097
aI530
aI1184
aI2610
aI1059
aI548
aI1000
aI939
aI384
aI545
aI532
aI263
aI1112
aI553
aI459
aI641
aI446
aI257
aI712
aI154
aI139
aI836
aI575
aI2637
aI168
aI408
aI1141
aI221
aI444
aI266
aI4859
aI1012
aI475
aI255
aI1446
aI2242
aI1246
aI594
aI511
aI140
aI2369
aI2277
aI996
aI1183
aI339
aI873
aI4479
aI1074
aI1887
aI1281
aI1202
aI4380
aI709
aI919
aI707
aI921
aI1944
aI608
aI1162
aI634
aI636
aI597
aI698
aI243
aI979
aI614
aI523
aI1303
aI2545
aI75
aI1159
aI171
aI426
aI243
aI933
aI167
aI461
aI272
aI428
aI885
aI3497
aI3929
aI1203
aI890
aI1573
aI205
aI429
aI253
aI516
aI171
aI516
aI998
aI1241
aI186
aI442
aI1052
aI1128
aI495
aI727
aI1518
aI561
aI709
aI706
aI181
aI2536
aI465
aI978
aI1001
aI665
aI751
aI141
aI700
aI1335
aI213
aI1342
aI470
aI544
aI113
aI151
aI1129
aI1041
aI879
aI301
aI1481
aI569
aI523
aI1293
aI807
aI277
aI220
aI3415
aI175
aI445
aI472
aI3344
aI985
aI1012
aI971
aI2125
aI314
aI639
aI724
aI401
aI184
aI206
aI375
aI334
aI926
aI215
aI1588
aI1136
aI1296
aI123
aI923
aI427
aI1280
aI550
aI255
aI3122
aI203
aI491
aI124
aI1010
aI296
aI279
aI941
aI525
aI719
aI1321
aI2350
aI848
aI511
aI1193
aI541
aI1012
aI781
aI766
aI885
aI222
aI570
aI808
aI894
aI4373
aI285
aI770
aI1035
aI563
aI248
aI205
aI229
aI739
aI121
aI6624
aI752
aI667
aI284
aI670
aI210
aI857
aI532
aI2609
aI130
aI494
aI925
aI82
aI345
aI248
aI622
aI179
aI178
aI158
aI554
aI1636
aI532
aI315
aI736
aI931
aI684
aI698
aI235
aI632
aI687
aI239
aI198
aI896
aI872
aI827
aI660
aI1112
aI621
aI2064
aI770
aI1044
aI1000
aI987
aI757
aI722
aI559
aI1226
aI1452
aI884
aI920
aI858
aI818
aI580
aI549
aI901
aI892
aI222
aI1110
aI208
aI1042
aI194
aI896
aI468
aI551
aI1008
aI412
aI910
aI538
aI565
aI4332
aI965
aI904
aI204
aI381
aI275
aI956
aI581
aI4928
aI247
aI203
aI507
aI1482
aI5130
aI519
aI840
aI284
aI240
aI561
aI2931
aI790
aI565
aI1280
aI4154
aI276
aI212
aI656
aI427
aI508
aI1137
aI980
aI1203
aI1238
aI627
aI225
aI960
aI932
aI288
aI5217
aI405
aI819
aI1304
aI462
aI241
aI2615
aI1310
aI1195
aI1245
aI899
aI769
aI653
aI4200
aI2546
aI3376
aI919
aI715
aI465
aI220
aI816
aI1045
aI2017
aI491
aI314
aI161
aI148
aI418
aI5834
aI1812
aI686
aI1081
aI972
aI631
aI927
aI883
aI738
aI621
aI176
aI444
aI1450
aI1598
aI1632
aI686
aI1211
aI1845
aI556
aI1468
aI398
aI323
aI243
aI147
aI2710
aI307
aI362
aI1264
aI835
aI130
aI609
aI439
aI1532
aI654
aI492
aI1161
aI651
aI367
aI908
aI444
aI587
aI1066
aI472
aI1699
aI280
aI1642
aI1051
aI202
aI2042
aI545
aI1012
aI600
aI451
aI497
aI1446
aI542
aI826
aI611
aI1749
aI3263
aI1188
aI536
aI154
aI606
aI6043
aI629
aI1022
aI157
aI3695
aI661
aI194
aI789
aI555
aI514
aI1248
aI438
aI2483
aI491
aI989
aI504
aI1149
aI1386
aI4995
aI549
aI148
aI4327
aI1482
aI289
aI209
aI1
aI171
aI550
aI613
aI620
aI1061
aI2772
aI529
aI222
aI1038
aI1226
aI503
aI39
aI1205
aI682
aI343
aI268
aI1471
aI871
aI4689
aI1108
aI843
aI334
aI586
aI17
aI1087
aI923
aI231
aI1281
aI1359
aI213
aI6239
aI526
aI1263
aI989
aI3415
aI990
aI850
aI645
aI712
aI483
aI1982
aI271
aI983
aI523
aI965
aI193
aI1496
aI299
aI715
aI515
aI1453
aI3793
aI1178
aI269
aI112
aI1193
aI1557
aI661
aI1148
aI1430
aI550
aI173
aI2218
aI213
aI498
aI1109
aI902
aI2194
aI629
aI247
aI710
aI832
aI2634
aI885
aI1060
aI1210
aI269
aI462
aI198
aI780
aI241
aI270
aI378
aI410
aI891
aI185
aI454
aI161
aI309
aI963
aI1070
aI627
aI486
aI205
aI238
aI613
aI436
aI597
aI1648
aI1262
aI2080
aI1365
aI2784
aI731
aI793
aI6391
aI845
aI1232
aI3941
aI3354
aI459
aI264
aI477
aI313
aI1013
aI649
aI627
aI760
aI654
aI2050
aI1028
aI4896
aI196
aI1257
aI368
aI1064
aI374
aI2581
aI440
aI446
aI471
aI552
aI509
aI2621
aI680
aI150
aI999
aI270
aI780
aI444
aI881
aI162
aI1321
aI197
aI842
aI1809
aI64
aI932
aI763
aI1901
aI1443
aI168
aI898
aI541
aI963
aI1844
aI123
aI637
aI196
aI2099
aI210
aI5481
aI2519
aI182
aI1110
aI1214
aI433
aI556
aI230
aI774
aI1107
aI972
aI509
aI505
aI317
aI891
aI1044
aI217
aI982
aI3189
aI834
aI179
aI869
aI1228
aI811
aI2832
aI1133
aI216
aI244
aI1168
aI423
aI494
aI1398
aI505
aI202
aI604
aI296
aI912
aI609
aI191
aI484
aI838
aI903
aI3828
aI5256
aI554
aI944
aI4122
aI216
aI875
aI97
aI994
aI314
aI128
aI814
aI218
aI323
aI1098
aI473
aI509
aI536
aI483
aI398
aI1967
aI1732
aI1181
aI1629
aI980
aI854
aI952
aI458
aI2048
aI4340
aI910
aI729
aI923
aI1222
aI1088
aI479
aI3517
aI243
aI1054
aI747
aI695
aI2115
aI203
aI2957
aI775
aI2793
aI6254
aI253
aI945
aI451
aI5259
aI547
aI228
aI447
aI213
aI1619
aI781
aI5528
aI580
aI104
aI213
aI1728
aI5479
aI864
aI887
aI2529
aI1243
aI1043
aI549
aI2772
aI539
aI1476
aI249
aI737
aI1684
aI777
aI587
aI208
aI1114
aI2090
aI2003
aI1534
aI228
aI1145
aI1130
aI215
aI721
aI742
aI63
aI957
aI200
aI546
aI180
aI242
aI559
aI502
aI1812
aI74
aI532
aI890
aI1852
aI847
aI1204
aI783
aI463
aI1163
aI4752
aI1095
aI249
aI322
aI572
aI6108
aI180
aI513
aI1001
aI525
aI546
aI2451
aI1721
aI180
aI1805
aI339
aI1210
aI200
aI584
aI3008
aI372
aI2678
aI972
aI289
aI1365
aI201
aI557
aI494
aI720
aI868
aI703
aI322
aI634
aI663
aI861
aI310
aI1081
aI1078
aI1214
aI1073
aI2314
aI1158
aI271
aI199
aI800
aI1882
aI447
aI173
aI599
aI344
aI343
aI524
aI848
aI2077
aI1235
aI643
aI5246
aI2600
aI1096
aI532
aI237
aI179
aI808
aI1256
aI1457
aI394
aI394
aI228
aI272
aI652
aI1233
aI180
aI4628
aI872
aI212
aI1953
aI816
aI100
aI212
aI784
aI550
aI1138
aI1960
aI746
aI1083
aI669
aI1104
aI2689
aI5331
aI1752
aI148
aI905
aI479
aI883
aI1194
aI460
aI406
aI2373
aI657
aI270
aI441
aI282
aI468
aI1641
aI866
aI47
aI957
aI884
aI1130
aI755
aI1377
aI968
aI2489
aI736
aI1215
aI555
aI1172
aI493
aI994
aI2424
aI527
aI190
aI221
aI179
aI940
aI499
aI1213
aI1005
aI1087
aI640
aI94
aI482
aI658
aI304
aI2498
aI775
aI1754
aI934
aI723
aI698
aI288
aI766
aI383
aI637
aI180
aI829
aI565
aI548
aI112
aI380
aI469
aI461
aI326
aI565
aI132
aI1227
aI1026
aI584
aI931
aI106
aI827
aI1208
aI1068
aI1077
aI217
aI546
aI1024
aI1116
aI1509
aI224
aI357
aI283
aI1037
aI433
aI4466
aI170
aI654
aI176
aI631
aI660
aI1057
aI67
aI1004
aI1178
aI228
aI2005
aI3790
aI285
aI3372
aI1415
aI755
aI672
aI234
aI1035
aI591
aI416
aI1449
aI323
aI823
aI1993
aI94
aI325
aI231
aI417
aI261
aI501
aI993
aI5164
aI3795
aI470
aI1004
aI758
aI111
aI302
aI2537
aI991
aI3024
aI1956
aI234
aI834
aI451
aI899
aI695
aI214
aI2849
aI595
aI432
aI1319
aI124
aI242
aI1179
aI6995
aI1049
aI405
aI93
aI73
aI902
aI640
aI2306
aI285
aI312
aI732
aI2157
aI502
aI949
aI713
aI3881
aI440
aI318
aI1186
aI1192
aI2683
aI1244
aI613
aI577
aI278
aI483
aI1004
aI254
aI161
aI443
aI1674
aI1088
aI641
aI291
aI1078
aI786
aI657
aI452
aI865
aI492
aI588
aI1038
aI936
aI729
aI462
aI2128
aI256
aI542
aI76
aI669
aI504
aI111
aI28
aI957
aI168
aI1924
aI667
aI566
aI1418
aI495
atp19
a(g1
(g5
S'\x00\x00\x00\x00\x00\xf0\x8e@'
p20
tp21
Rp22
S'ENVO:animal-associated habitat (n=569)'
p23
(lp24
I155
aI896
aI2459
aI464
aI1295
aI1246
aI4358
aI1
aI6583
aI2
aI1597
aI3480
aI3578
aI1035
aI1729
aI3930
aI1162
aI0
aI979
aI3856
aI2043
aI1469
aI1571
aI446
aI990
aI1244
aI1569
aI1896
aI145
aI2413
aI52
aI30
aI208
aI459
aI388
aI1471
aI450
aI99
aI1202
aI9350
aI1703
aI2738
aI5143
aI647
aI767
aI667
aI1095
aI258
aI703
aI440
aI1837
aI1433
aI144
aI1779
aI202
aI168
aI1
aI4400
aI1161
aI518
aI0
aI441
aI1163
aI669
aI867
aI825
aI160
aI527
aI1210
aI4
aI255
aI63
aI3246
aI1430
aI0
aI657
aI2273
aI283
aI338
aI778
aI2809
aI1340
aI1996
aI3338
aI4176
aI5075
aI621
aI661
aI2380
aI961
aI822
aI2009
aI376
aI3430
aI1172
aI0
aI1
aI955
aI3553
aI1017
aI1577
aI169
aI1619
aI1095
aI1963
aI604
aI1969
aI59
aI160
aI1815
aI1437
aI299
aI0
aI77
aI3595
aI1013
aI155
aI420
aI826
aI513
aI890
aI213
aI415
aI749
aI1285
aI307
aI357
aI1
aI845
aI2
aI2981
aI161
aI993
aI277
aI1587
aI1428
aI444
aI615
aI767
aI877
aI1
aI1466
aI3240
aI3247
aI2104
aI879
aI1154
aI2161
aI2
aI743
aI403
aI140
aI3244
aI522
aI1194
aI3310
aI590
aI835
aI1231
aI691
aI1193
aI187
aI1340
aI3453
aI260
aI3162
aI2318
aI555
aI2868
aI2
aI1683
aI866
aI2011
aI2264
aI1429
aI1238
aI4742
aI1674
aI3165
aI3195
aI1188
aI1223
aI554
aI954
aI2986
aI550
aI5444
aI6974
aI4209
aI1
aI2003
aI75
aI326
aI381
aI740
aI1590
aI411
aI4118
aI451
aI3848
aI3101
aI5040
aI1711
aI453
aI3
aI534
aI833
aI2383
aI777
aI3270
aI4884
aI772
aI46
aI85
aI895
aI6019
aI2405
aI272
aI1243
aI660
aI1671
aI1355
aI214
aI861
aI550
aI170
aI179
aI146
aI30
aI732
aI4963
aI1097
aI2849
aI257
aI2871
aI2229
aI6301
aI192
aI946
aI898
aI890
aI2827
aI374
aI2995
aI146
aI560
aI3590
aI238
aI1419
aI0
aI1045
aI897
aI722
aI949
aI2189
aI0
aI1749
aI7268
aI3025
aI4614
aI599
aI940
aI471
aI293
aI1315
aI4244
aI386
aI4315
aI1791
aI2201
aI4614
aI950
aI5105
aI6378
aI3824
aI293
aI297
aI0
aI13
aI4095
aI2629
aI1811
aI803
aI1328
aI3201
aI2039
aI459
aI57
aI348
aI688
aI0
aI950
aI7204
aI2777
aI348
aI475
aI2274
aI314
aI6938
aI729
aI3908
aI3729
aI3194
aI1066
aI363
aI1704
aI2306
aI4365
aI6044
aI1584
aI101
aI3882
aI687
aI231
aI2054
aI306
aI1176
aI5339
aI2170
aI288
aI5015
aI451
aI527
aI311
aI272
aI757
aI3628
aI1955
aI557
aI3434
aI1150
aI34
aI478
aI2385
aI462
aI326
aI1660
aI406
aI0
aI975
aI2427
aI107
aI3
aI3830
aI197
aI1543
aI315
aI825
aI1499
aI959
aI857
aI746
aI811
aI180
aI319
aI694
aI2321
aI32
aI2533
aI1844
aI2297
aI4330
aI802
aI975
aI414
aI8
aI529
aI13
aI709
aI587
aI25
aI2365
aI1
aI1625
aI682
aI2394
aI314
aI476
aI1449
aI3531
aI1196
aI7765
aI2644
aI2834
aI6577
aI4225
aI0
aI2694
aI1062
aI5534
aI164
aI1
aI3728
aI8464
aI107
aI464
aI1080
aI606
aI3305
aI1177
aI1246
aI458
aI1007
aI3
aI405
aI1339
aI414
aI1664
aI4650
aI415
aI1842
aI4103
aI1495
aI1221
aI646
aI701
aI2602
aI0
aI1949
aI473
aI3786
aI471
aI958
aI403
aI465
aI557
aI4210
aI724
aI769
aI501
aI779
aI4879
aI2765
aI1
aI866
aI244
aI417
aI4934
aI113
aI2533
aI417
aI1147
aI531
aI36
aI80
aI1228
aI778
aI4728
aI3
aI3347
aI1433
aI3939
aI477
aI6052
aI3692
aI1
aI5555
aI240
aI44
aI2030
aI417
aI487
aI1996
aI249
aI1324
aI541
aI1513
aI2222
aI30
aI278
aI3710
aI5524
aI847
aI1518
aI2514
aI2351
aI273
aI2519
aI1297
aI604
aI3083
aI216
aI5
aI2
aI758
aI3037
aI329
aI4726
aI1603
aI2549
aI2180
aI1601
aI3288
aI2251
aI1500
aI809
aI951
aI775
aI4780
aI2837
aI2661
aI324
aI708
aI1328
aI1161
aI753
aI3
aI1389
aI687
aI3532
aI2268
aI1020
aI929
aI1327
aI112
aI1835
aI5402
aI715
aI4909
aI143
aI1632
aI1
aI2
aI4592
aI1063
aI2687
aI2295
aI455
aI3285
aI1614
aI1162
aI2832
aI1867
aI3597
aI4873
aI807
aI525
aI7231
aI3439
aI1693
aI1156
aI1294
aI570
aI2087
aI680
aI661
aI1664
aI2505
aI324
aI0
aI1322
aI516
aI3
aI1521
aI2671
aI2851
aI32
aI2427
aI3784
aI233
aI201
aI2769
aI605
aI3542
aI2617
aI677
aI1070
aI160
aI0
atp25
a(g1
(g5
S'\x00\x00\x00\x00\x00\xea\x9a@'
p26
tp27
Rp28
S'ENVO:aquatic biome (n=860)'
p29
(lp30
I6995
aI415
aI315
aI422
aI4230
aI1181
aI7129
aI404
aI443
aI6552
aI5040
aI4694
aI152
aI580
aI292
aI8312
aI2423
aI11847
aI462
aI38
aI1579
aI184
aI503
aI242
aI5818
aI6815
aI7279
aI6684
aI12379
aI8188
aI12274
aI688
aI8114
aI2169
aI966
aI2443
aI7686
aI7117
aI3817
aI1
aI502
aI8371
aI1224
aI498
aI541
aI7588
aI708
aI447
aI2714
aI9201
aI3982
aI4317
aI6476
aI777
aI1680
aI2977
aI1156
aI7239
aI6898
aI5045
aI7221
aI759
aI472
aI646
aI541
aI9148
aI420
aI6036
aI6657
aI2246
aI2151
aI421
aI2719
aI9204
aI70
aI2522
aI1006
aI505
aI275
aI1375
aI7039
aI7177
aI916
aI481
aI2969
aI6566
aI8299
aI482
aI1364
aI1133
aI5960
aI441
aI249
aI1010
aI7543
aI2823
aI7939
aI598
aI5395
aI563
aI7271
aI7594
aI7714
aI6806
aI616
aI323
aI3604
aI7289
aI293
aI7989
aI530
aI203
aI654
aI445
aI4299
aI702
aI512
aI570
aI2
aI0
aI4026
aI4404
aI1049
aI514
aI6111
aI527
aI1460
aI671
aI8145
aI454
aI8209
aI2167
aI692
aI8197
aI8419
aI9041
aI4533
aI1658
aI3153
aI5206
aI0
aI683
aI199
aI390
aI6284
aI486
aI444
aI482
aI5015
aI782
aI228
aI9780
aI20544
aI6388
aI364
aI743
aI20188
aI5773
aI366
aI370
aI9493
aI1564
aI13368
aI1567
aI352
aI10538
aI4085
aI8867
aI22320
aI10878
aI1018
aI8017
aI477
aI7109
aI6836
aI1611
aI734
aI1140
aI276
aI6749
aI1730
aI5382
aI450
aI426
aI2281
aI6656
aI6947
aI298
aI617
aI596
aI20
aI1161
aI0
aI640
aI5791
aI0
aI313
aI1001
aI465
aI511
aI6620
aI7428
aI1396
aI491
aI465
aI5181
aI3417
aI9202
aI11359
aI8936
aI321
aI659
aI387
aI3130
aI5466
aI6701
aI264
aI276
aI501
aI367
aI591
aI7627
aI962
aI8335
aI720
aI7082
aI4794
aI1433
aI2058
aI7407
aI4983
aI1079
aI4442
aI3364
aI8558
aI5032
aI3188
aI3267
aI457
aI5596
aI5933
aI448
aI506
aI4458
aI500
aI334
aI424
aI1558
aI7222
aI8553
aI5399
aI6302
aI1602
aI6873
aI512
aI16100
aI7047
aI2144
aI3812
aI0
aI778
aI6512
aI2673
aI361
aI518
aI537
aI7498
aI1402
aI913
aI6462
aI7976
aI318
aI6538
aI312
aI533
aI451
aI524
aI6775
aI7188
aI922
aI620
aI1937
aI10357
aI0
aI1397
aI4173
aI3326
aI7094
aI6189
aI2985
aI284
aI0
aI8350
aI494
aI832
aI1701
aI258
aI6347
aI1437
aI357
aI576
aI1079
aI1150
aI417
aI1873
aI3316
aI11373
aI397
aI634
aI3257
aI5197
aI8053
aI1590
aI2371
aI5047
aI1062
aI6286
aI623
aI458
aI10276
aI14062
aI403
aI499
aI824
aI1583
aI6453
aI740
aI4133
aI8116
aI1085
aI463
aI5514
aI565
aI8535
aI4458
aI9259
aI1283
aI1150
aI4234
aI546
aI207
aI305
aI571
aI552
aI3835
aI10946
aI601
aI6925
aI168
aI986
aI15603
aI543
aI8048
aI7728
aI8059
aI8350
aI452
aI7866
aI8485
aI1087
aI6690
aI418
aI23424
aI346
aI563
aI1545
aI8047
aI6249
aI0
aI458
aI6881
aI1577
aI338
aI1268
aI0
aI346
aI865
aI4116
aI596
aI6956
aI3323
aI394
aI539
aI748
aI1856
aI1391
aI536
aI0
aI4240
aI843
aI419
aI219
aI7992
aI971
aI6623
aI508
aI7769
aI4713
aI1722
aI1404
aI1232
aI7889
aI2265
aI8199
aI361
aI2850
aI18
aI1687
aI1690
aI1427
aI1811
aI0
aI19
aI715
aI511
aI1768
aI7365
aI454
aI7093
aI19663
aI913
aI6186
aI8016
aI7327
aI6085
aI4169
aI4280
aI6924
aI573
aI5511
aI496
aI9325
aI4391
aI438
aI8248
aI3047
aI3347
aI1216
aI6058
aI439
aI759
aI535
aI19296
aI2576
aI4439
aI1302
aI8494
aI413
aI799
aI6103
aI7737
aI294
aI3003
aI8052
aI801
aI4875
aI430
aI1123
aI366
aI12330
aI8863
aI6312
aI1723
aI7154
aI0
aI1026
aI1756
aI449
aI644
aI3045
aI5229
aI429
aI7594
aI1
aI1021
aI6825
aI8569
aI7515
aI728
aI500
aI5181
aI7229
aI6068
aI3189
aI114
aI655
aI26426
aI677
aI1344
aI347
aI422
aI275
aI4691
aI428
aI538
aI450
aI3975
aI408
aI1624
aI22943
aI9091
aI3364
aI8232
aI5950
aI6707
aI301
aI7974
aI2673
aI8354
aI408
aI654
aI23337
aI2593
aI308
aI762
aI870
aI7912
aI5235
aI12
aI4570
aI7514
aI2101
aI229
aI296
aI468
aI1486
aI5961
aI453
aI4261
aI348
aI8376
aI4109
aI8459
aI4052
aI525
aI338
aI7615
aI6699
aI0
aI2352
aI7369
aI743
aI4297
aI5522
aI7582
aI509
aI1041
aI6782
aI380
aI448
aI660
aI3978
aI6242
aI265
aI0
aI626
aI2517
aI445
aI5969
aI576
aI250
aI7726
aI503
aI9717
aI2178
aI5193
aI9035
aI419
aI2538
aI258
aI24734
aI430
aI6519
aI505
aI1809
aI7096
aI1995
aI8969
aI8301
aI265
aI7532
aI6146
aI2432
aI5177
aI1
aI8169
aI476
aI487
aI2412
aI4429
aI19296
aI327
aI325
aI350
aI6257
aI920
aI7466
aI3182
aI388
aI8569
aI288
aI4719
aI7137
aI443
aI9501
aI5881
aI6848
aI853
aI20486
aI519
aI6765
aI6989
aI706
aI0
aI9142
aI1056
aI6236
aI590
aI6924
aI1664
aI8322
aI1916
aI7699
aI14294
aI1334
aI1483
aI394
aI6974
aI1616
aI10691
aI1087
aI533
aI9638
aI8004
aI864
aI514
aI6464
aI6791
aI116
aI317
aI907
aI357
aI598
aI3232
aI9341
aI559
aI1019
aI935
aI3385
aI6478
aI6877
aI11043
aI1233
aI1856
aI427
aI4006
aI3522
aI569
aI456
aI283
aI598
aI3262
aI544
aI5532
aI8822
aI957
aI9473
aI438
aI881
aI9227
aI273
aI4153
aI3958
aI264
aI0
aI6812
aI3572
aI20194
aI6093
aI6134
aI5068
aI954
aI7769
aI1561
aI7053
aI36
aI6709
aI7669
aI1695
aI3608
aI10787
aI536
aI149
aI0
aI493
aI2711
aI1014
aI2000
aI182
aI2935
aI4304
aI972
aI24866
aI514
aI7194
aI5449
aI6026
aI258
aI6877
aI9831
aI8356
aI3562
aI7090
aI4099
aI6405
aI6338
aI366
aI545
aI22339
aI2
aI7509
aI5898
aI258
aI861
aI7
aI2310
aI3456
aI287
aI349
aI0
aI421
aI542
aI279
aI467
aI9885
aI6595
aI7653
aI8293
aI908
aI1052
aI484
aI2541
aI10106
aI3713
aI563
aI7956
aI10510
aI5211
aI12199
aI1465
aI3
aI4083
aI573
aI642
aI567
aI5580
aI1
aI3666
aI8361
aI281
aI444
aI2845
aI6327
aI7721
aI194
aI9206
aI605
aI6916
aI0
aI651
aI7216
aI7506
aI557
aI338
aI616
aI6606
aI267
aI602
aI0
aI742
aI341
aI490
aI776
aI445
aI0
aI10234
aI682
aI10888
aI436
aI263
aI6651
aI1907
aI500
aI7441
aI8274
aI8908
aI627
aI5787
aI7940
aI7886
aI388
aI1579
aI6712
aI3615
aI5321
aI1894
aI400
aI4110
aI1174
aI434
aI0
aI436
aI433
aI844
aI2585
aI1879
aI772
aI2756
aI10176
aI1923
aI0
aI1874
aI5011
aI1741
aI8388
aI431
aI7265
aI261
aI2866
aI566
aI7885
aI3369
aI412
aI422
aI1177
aI545
aI588
aI478
aI1763
aI944
aI577
aI2493
aI525
aI706
aI450
aI525
aI354
aI3817
aI252
aI7324
aI463
aI8307
aI11441
aI254
aI4702
aI0
aI917
aI394
aI4838
aI844
atp31
a(g1
(g5
S'\x00\x00\x00\x00\x00`\xab@'
p32
tp33
Rp34
S'ENVO:small lake biome (n=1622)'
p35
(lp36
I1687
aI10014
aI7343
aI5095
aI5662
aI6128
aI1558
aI2830
aI139
aI6691
aI6912
aI2489
aI1682
aI5544
aI13243
aI10201
aI5701
aI2590
aI3061
aI1219
aI6707
aI10284
aI2223
aI4662
aI2831
aI3776
aI6579
aI4856
aI4794
aI2061
aI3051
aI3015
aI5553
aI3376
aI1749
aI5180
aI1197
aI1169
aI1998
aI3086
aI12200
aI2432
aI6039
aI2259
aI1855
aI3776
aI1004
aI2998
aI3983
aI13
aI2865
aI5045
aI1127
aI2941
aI1732
aI2482
aI699
aI2396
aI8234
aI2694
aI1359
aI1314
aI8437
aI1447
aI1384
aI16694
aI4632
aI7111
aI1552
aI2736
aI5619
aI10342
aI10650
aI4052
aI1221
aI10551
aI6319
aI3505
aI6646
aI1174
aI1384
aI3770
aI4036
aI3181
aI1478
aI2586
aI6446
aI5854
aI12792
aI1086
aI2936
aI1493
aI4070
aI4749
aI2543
aI1142
aI2177
aI2401
aI2576
aI1902
aI44
aI8433
aI2655
aI3195
aI2407
aI5805
aI4822
aI1722
aI13445
aI3270
aI5693
aI2662
aI4527
aI1636
aI1763
aI5272
aI2733
aI1735
aI7435
aI1963
aI9917
aI6311
aI6235
aI7494
aI847
aI4235
aI2953
aI8132
aI1785
aI10513
aI947
aI3100
aI2304
aI868
aI3838
aI1230
aI3367
aI4108
aI40
aI3065
aI1305
aI8062
aI611
aI1182
aI1048
aI2956
aI979
aI826
aI568
aI6080
aI1821
aI5257
aI2201
aI3743
aI2441
aI3049
aI3526
aI8911
aI480
aI4780
aI3983
aI5634
aI4657
aI3166
aI2870
aI3408
aI3844
aI3480
aI2978
aI1481
aI3710
aI4300
aI1319
aI15303
aI1673
aI59
aI1206
aI2901
aI4287
aI6658
aI6731
aI5451
aI3650
aI3148
aI5104
aI2547
aI407
aI1019
aI1010
aI4724
aI1951
aI1454
aI1528
aI2224
aI5064
aI3805
aI2552
aI7015
aI3679
aI1073
aI5325
aI13216
aI2827
aI2133
aI2614
aI2740
aI895
aI3011
aI1866
aI4425
aI9587
aI6024
aI7971
aI3461
aI7234
aI1561
aI6491
aI2486
aI3604
aI6723
aI1575
aI2285
aI1543
aI2254
aI14416
aI6142
aI3839
aI2017
aI4516
aI12852
aI1222
aI2710
aI2876
aI11947
aI3852
aI1015
aI2147
aI15565
aI5173
aI936
aI3984
aI1484
aI3915
aI1448
aI4861
aI9587
aI3126
aI1148
aI8873
aI23258
aI694
aI5765
aI11382
aI2713
aI1747
aI7144
aI5693
aI3783
aI7420
aI3447
aI2129
aI2206
aI2841
aI4023
aI14171
aI3936
aI9191
aI2537
aI2966
aI1642
aI5361
aI5454
aI4980
aI1942
aI19104
aI1533
aI136
aI3607
aI6096
aI1954
aI8382
aI12969
aI1846
aI15849
aI4222
aI5523
aI13191
aI1221
aI4606
aI8933
aI2205
aI1596
aI1091
aI2800
aI2519
aI3862
aI1492
aI3608
aI5746
aI8175
aI932
aI3063
aI6484
aI2893
aI2779
aI1033
aI8183
aI5095
aI4820
aI4946
aI1711
aI2212
aI7071
aI4596
aI862
aI2775
aI2863
aI990
aI10892
aI4328
aI4112
aI5065
aI15363
aI1309
aI7528
aI1677
aI2503
aI3943
aI4384
aI3129
aI6439
aI1926
aI2455
aI3652
aI2422
aI1927
aI5190
aI6650
aI700
aI230
aI7169
aI2648
aI5840
aI2499
aI13093
aI1814
aI5831
aI4745
aI1387
aI5362
aI1352
aI12918
aI3808
aI5051
aI1660
aI4292
aI5607
aI2789
aI3391
aI3913
aI3627
aI3953
aI876
aI4193
aI11525
aI13344
aI1685
aI5746
aI2105
aI6926
aI12974
aI1620
aI805
aI12203
aI756
aI7704
aI7841
aI1843
aI1755
aI10351
aI7765
aI2441
aI11046
aI2730
aI2844
aI3408
aI1739
aI3139
aI1863
aI6234
aI3133
aI522
aI4042
aI3687
aI5909
aI3307
aI4503
aI8579
aI4264
aI2955
aI1391
aI8178
aI1661
aI3434
aI1729
aI4870
aI3940
aI7941
aI3539
aI3237
aI3384
aI2894
aI2026
aI7526
aI1415
aI5500
aI3194
aI6369
aI9448
aI4322
aI1307
aI1227
aI4650
aI4476
aI2438
aI4202
aI2229
aI1236
aI1167
aI6464
aI6375
aI3
aI6128
aI1283
aI3266
aI3223
aI2322
aI2588
aI3320
aI3541
aI2224
aI4694
aI540
aI2028
aI7111
aI2241
aI9359
aI5966
aI5588
aI3075
aI3947
aI5706
aI22903
aI4867
aI10698
aI3798
aI1632
aI2694
aI13527
aI1417
aI6925
aI11584
aI291
aI719
aI3585
aI3506
aI7250
aI526
aI964
aI2836
aI4706
aI5304
aI4040
aI6427
aI2541
aI5787
aI4421
aI4285
aI3034
aI5703
aI2515
aI592
aI6227
aI13821
aI1646
aI1362
aI3817
aI804
aI4749
aI3239
aI947
aI2875
aI8272
aI9008
aI6424
aI6272
aI1755
aI3533
aI3882
aI2640
aI2932
aI5190
aI961
aI1492
aI5133
aI5992
aI8922
aI2853
aI1343
aI1361
aI1965
aI4351
aI3016
aI2062
aI5339
aI2633
aI6736
aI5026
aI3322
aI4900
aI2489
aI11484
aI7682
aI8907
aI1080
aI5902
aI5038
aI5847
aI1072
aI863
aI1027
aI5042
aI2469
aI1631
aI9322
aI2555
aI4612
aI1149
aI5
aI10960
aI6
aI12018
aI2739
aI4256
aI9825
aI1481
aI1017
aI8035
aI14949
aI3302
aI7544
aI13377
aI1758
aI908
aI717
aI2862
aI7977
aI13315
aI10125
aI2769
aI909
aI901
aI1497
aI8873
aI4662
aI3295
aI1270
aI3023
aI2190
aI1347
aI1879
aI4898
aI4161
aI2524
aI986
aI1381
aI17380
aI3697
aI1298
aI1625
aI4799
aI1380
aI1678
aI11318
aI22902
aI3466
aI11082
aI3457
aI2804
aI3643
aI531
aI8343
aI639
aI1420
aI3515
aI2644
aI1084
aI5125
aI4160
aI3711
aI4134
aI2044
aI2587
aI7981
aI5167
aI10017
aI5660
aI5527
aI1897
aI7633
aI4021
aI3357
aI1028
aI822
aI10822
aI1677
aI4637
aI3443
aI3324
aI3888
aI760
aI2593
aI3120
aI1966
aI1700
aI8897
aI2133
aI10363
aI2603
aI2785
aI7573
aI5776
aI1195
aI6272
aI10840
aI4907
aI1397
aI4896
aI6059
aI1354
aI1227
aI2250
aI2849
aI9972
aI2240
aI12974
aI796
aI5220
aI2913
aI3561
aI4462
aI5860
aI21796
aI5469
aI6722
aI1539
aI3825
aI6475
aI3418
aI8296
aI6050
aI5657
aI2828
aI3243
aI5778
aI940
aI4215
aI1185
aI2239
aI1396
aI5703
aI82
aI2002
aI4156
aI5402
aI1778
aI4797
aI1231
aI1890
aI5107
aI1671
aI1240
aI1529
aI3307
aI8255
aI3403
aI2217
aI6148
aI3087
aI34851
aI4463
aI3598
aI8423
aI1022
aI5193
aI5608
aI3315
aI2688
aI3504
aI3372
aI1709
aI1704
aI9943
aI1237
aI4330
aI19
aI5941
aI7711
aI2676
aI15666
aI5253
aI3464
aI5977
aI15122
aI2474
aI14319
aI3688
aI7603
aI3062
aI13620
aI2430
aI3226
aI3876
aI4068
aI4386
aI7343
aI2246
aI3204
aI44
aI1721
aI2073
aI2187
aI14846
aI2099
aI3219
aI1060
aI1200
aI5129
aI1390
aI3103
aI5406
aI4183
aI3407
aI9147
aI1444
aI804
aI5135
aI10042
aI2665
aI2759
aI4835
aI1288
aI10840
aI2572
aI17407
aI3190
aI8743
aI1389
aI16713
aI2564
aI4918
aI4169
aI2889
aI4759
aI5235
aI2775
aI8309
aI4412
aI2934
aI4988
aI2907
aI11687
aI10764
aI84
aI4517
aI5003
aI3900
aI3080
aI3430
aI3667
aI2192
aI3332
aI0
aI1999
aI1047
aI11053
aI1083
aI821
aI3363
aI3433
aI4561
aI2109
aI784
aI13192
aI5212
aI3593
aI720
aI6284
aI2273
aI8381
aI5596
aI1187
aI2528
aI3388
aI4672
aI3982
aI4413
aI3574
aI778
aI1569
aI6454
aI1564
aI1115
aI1613
aI5694
aI3923
aI688
aI5392
aI989
aI4151
aI3393
aI3461
aI1572
aI2804
aI670
aI1133
aI11033
aI2677
aI3535
aI3572
aI3811
aI1816
aI4084
aI987
aI4961
aI4016
aI2227
aI4250
aI1582
aI3629
aI3289
aI6265
aI1125
aI2866
aI2386
aI1657
aI1953
aI2218
aI11536
aI2629
aI13833
aI5783
aI2370
aI8705
aI1359
aI8644
aI6933
aI3409
aI4350
aI8998
aI4542
aI2663
aI1510
aI5144
aI5395
aI6679
aI2364
aI2116
aI1450
aI3439
aI4957
aI3933
aI1498
aI4470
aI2421
aI1148
aI2727
aI786
aI4276
aI2332
aI2708
aI6143
aI2991
aI5182
aI3373
aI4374
aI3504
aI1809
aI5750
aI4986
aI3716
aI4704
aI11795
aI2213
aI7839
aI1600
aI2625
aI5351
aI1510
aI1121
aI1264
aI5295
aI2584
aI1539
aI1047
aI899
aI4370
aI1333
aI4832
aI5924
aI3821
aI7577
aI3800
aI4113
aI689
aI6887
aI2188
aI2846
aI2227
aI6495
aI3013
aI6887
aI473
aI7318
aI8100
aI678
aI12842
aI5306
aI1147
aI7958
aI582
aI4851
aI6172
aI5920
aI2
aI4040
aI5566
aI8716
aI5345
aI6554
aI1061
aI1312
aI2414
aI3031
aI779
aI5120
aI6936
aI9266
aI4065
aI2396
aI4984
aI6225
aI1153
aI4119
aI5928
aI14395
aI1443
aI3711
aI3196
aI4862
aI3737
aI18425
aI7922
aI7084
aI1495
aI7729
aI4922
aI4554
aI4382
aI2800
aI946
aI5840
aI22036
aI960
aI5014
aI8521
aI1377
aI9567
aI10333
aI1528
aI2842
aI2085
aI7841
aI3317
aI5139
aI6572
aI10368
aI2812
aI11226
aI5027
aI3883
aI2789
aI1268
aI9113
aI5252
aI3848
aI1400
aI7067
aI3025
aI2182
aI2524
aI1521
aI5650
aI5275
aI2988
aI1463
aI3946
aI1751
aI276
aI3024
aI3061
aI20700
aI1575
aI1427
aI3837
aI2065
aI11073
aI2735
aI5356
aI9218
aI1885
aI7632
aI3563
aI4435
aI1257
aI7401
aI1694
aI5136
aI7830
aI8087
aI2182
aI13130
aI1464
aI3545
aI21423
aI2459
aI1521
aI9751
aI4673
aI1329
aI2740
aI2488
aI6574
aI5461
aI5936
aI2334
aI2538
aI15404
aI3032
aI867
aI5845
aI3587
aI3285
aI2242
aI12
aI8683
aI828
aI1630
aI4706
aI3007
aI2677
aI3529
aI1720
aI4700
aI9776
aI2052
aI2441
aI1305
aI606
aI6192
aI317
aI5430
aI5465
aI3824
aI3086
aI7010
aI7640
aI11844
aI5919
aI3609
aI3562
aI3574
aI917
aI1524
aI2122
aI10037
aI6515
aI2076
aI6016
aI2910
aI17253
aI7403
aI8094
aI7567
aI1004
aI4685
aI58
aI10047
aI1882
aI6678
aI0
aI5670
aI3033
aI20
aI5792
aI3169
aI1519
aI3060
aI3394
aI5578
aI1515
aI1580
aI750
aI6060
aI3223
aI69
aI1532
aI4328
aI3330
aI3073
aI1302
aI3741
aI1035
aI1737
aI7840
aI5282
aI2904
aI3054
aI5932
aI8147
aI1742
aI6546
aI3158
aI5563
aI9879
aI1054
aI116
aI2545
aI4163
aI3978
aI5807
aI1094
aI7834
aI3647
aI1675
aI15263
aI1395
aI4311
aI7240
aI3115
aI12229
aI2178
aI4495
aI8080
aI3803
aI3635
aI4622
aI1345
aI5861
aI8798
aI10323
aI5024
aI3767
aI5937
aI12673
aI4008
aI909
aI4805
aI4199
aI10045
aI5799
aI5980
aI8613
aI3656
aI7056
aI6436
aI3200
aI3658
aI3320
aI2894
aI3712
aI4502
aI5883
aI3873
aI4950
aI4155
aI3727
aI4691
aI964
aI4626
aI2811
aI4948
aI2049
aI6315
aI2894
aI884
aI1311
aI6498
aI2980
aI1538
aI5121
aI5670
aI1635
aI20626
aI2430
aI5226
aI3061
aI7724
aI7270
aI2508
aI6188
aI4623
aI7807
aI3438
aI1742
aI17332
aI8033
aI5280
aI4307
aI3918
aI3817
aI3861
aI1035
aI2630
aI2451
aI913
aI2974
aI9717
aI11382
aI4565
aI3403
aI3318
aI3163
aI6457
aI1333
aI425
aI2881
aI3710
aI7725
aI3042
aI4295
aI4822
aI2536
aI2298
aI1312
aI3295
aI5096
aI4157
aI4657
aI5469
aI1841
aI2080
aI2989
aI3038
aI2662
aI1426
aI3126
aI4803
aI6206
aI4926
aI6443
aI1371
aI6698
aI2548
aI1079
aI1232
aI4113
aI3436
aI738
aI4
aI1395
aI1648
aI5862
aI2590
aI2077
aI10928
aI4806
aI6363
aI6163
aI2262
aI1178
aI6107
aI3181
aI2810
aI6601
aI2179
aI3382
aI3377
aI804
aI11227
aI959
aI3299
aI4725
aI3198
aI373
aI6706
aI5906
aI13
aI1861
aI13978
aI4051
aI4931
aI4323
aI1766
aI1757
aI3021
aI4475
aI1760
aI1429
aI3068
aI8668
aI8494
aI4162
aI5715
aI1896
aI1799
aI3482
aI4787
aI7296
aI2536
aI1123
aI1735
aI1097
aI14180
aI2483
aI3364
aI6457
aI2440
aI4764
aI3955
aI5246
aI4105
aI2141
aI10427
aI7953
aI2485
aI2509
aI3264
aI599
aI785
aI4805
aI7028
aI1589
aI1507
aI4136
aI8465
aI5283
aI1689
aI2
aI11955
aI5271
aI496
aI3
aI3590
aI4734
aI5642
aI6635
aI12562
aI3700
aI1647
aI1110
aI7737
aI5006
aI3043
aI3133
aI4760
aI2715
aI10076
aI2587
aI3556
aI3600
aI1881
aI5901
aI96
aI10665
aI1822
aI4769
aI2927
aI3096
aI5075
aI1406
aI1715
aI4726
aI4411
aI1643
aI11831
aI3797
aI3830
aI3339
aI2419
aI4886
aI4753
aI4589
aI1739
aI3982
aI5653
aI7040
aI4667
aI3339
aI3336
aI1699
aI7781
aI9760
aI3731
aI4953
aI17792
aI3375
aI4138
aI4151
aI2345
aI4301
aI5806
aI2834
aI3520
aI2517
aI3489
aI2477
aI6457
aI1723
aI4508
aI4929
aI2340
aI3864
aI5317
aI1813
aI3363
aI999
aI6618
aI1047
aI3966
aI3669
aI5988
aI5077
aI3770
aI7497
aI7272
aI3138
aI3448
aI4115
aI4533
aI6889
aI7518
aI4625
aI3930
aI5805
aI9443
aI7381
aI3497
aI1044
aI2658
aI10943
aI1488
aI3679
aI2220
aI2042
aI1552
aI4464
aI2656
aI2257
aI6013
aI2397
aI1220
aI3261
aI747
aI2249
aI330
aI10019
aI12578
aI2387
aI3163
aI1674
aI9320
aI3645
aI2172
aI14378
aI3221
aI2894
aI2658
aI4624
aI8000
aI4232
aI4089
aI1942
aI7345
aI1464
aI1062
aI2103
aI3172
aI2371
aI2653
aI3884
aI25651
aI3396
aI2975
aI4604
aI1439
aI2947
aI4996
aI2452
aI1172
aI3245
aI3903
aI12365
aI17439
aI5889
aI3508
aI2203
aI11683
aI7833
aI2186
aI1155
aI8061
aI5194
aI441
aI3398
aI3654
aI4070
aI1130
aI6409
aI1695
aI9259
aI3663
aI7141
aI2570
aI2009
aI2860
aI8624
aI1703
aI6837
aI3613
aI3474
aI894
aI6704
aI2543
aI50
aI2252
aI1540
aI4126
aI9558
aI5000
aI2537
aI1345
aI3298
aI2232
aI2933
aI1165
aI4476
aI4783
aI2407
aI2058
aI11142
aI3075
aI20640
aI10511
aI1683
aI4040
aI5857
aI3763
aI2997
aI3794
aI2089
aI4367
aI5140
aI4000
aI2905
aI2680
aI16387
aI11446
aI13114
aI22
aI1503
aI15779
aI2
aI1317
aI2428
aI1269
aI5851
aI1143
aI3452
aI2984
aI1502
aI5717
aI2569
aI4204
aI1721
aI4579
aI4307
aI17938
aI3661
aI5235
aI5028
aI5450
aI2644
aI1401
aI2448
aI1990
aI9691
aI12676
aI998
aI7922
aI777
aI3917
aI6901
aI1674
aI615
aI5299
aI1099
aI3409
aI4510
aI1074
aI3103
aI7041
aI3732
aI1482
aI4385
aI2416
aI1259
aI4654
aI2836
aI1580
aI8144
aI3349
atp37
a(g1
(g5
S'\x00\x00\x00\x00\x00/\xb3@'
p38
tp39
Rp40
S'ENVO:cold-winter (continental) deserts and semideserts (n=119)'
p41
(lp42
I3223
aI4377
aI8969
aI1900
aI6062
aI7411
aI5680
aI6630
aI6644
aI5826
aI9
aI4829
aI3422
aI3632
aI2612
aI7471
aI2
aI3721
aI6933
aI5858
aI6478
aI4640
aI5610
aI2786
aI4685
aI6086
aI4719
aI4599
aI9296
aI5182
aI7897
aI6043
aI4355
aI5008
aI2920
aI3672
aI6068
aI7450
aI2957
aI6173
aI4031
aI5872
aI4093
aI6197
aI4338
aI4213
aI5130
aI5199
aI2739
aI4939
aI5913
aI5506
aI7473
aI3581
aI2
aI14
aI4957
aI8594
aI4431
aI3124
aI7058
aI6620
aI3558
aI4809
aI0
aI5581
aI6040
aI4672
aI2497
aI4588
aI5143
aI6439
aI5485
aI5369
aI3552
aI5653
aI4911
aI5407
aI4941
aI5001
aI4774
aI5795
aI3378
aI2417
aI3748
aI5550
aI5281
aI5536
aI4843
aI3966
aI4814
aI3
aI2801
aI4876
aI6652
aI5100
aI5313
aI5484
aI2037
aI4135
aI7269
aI4343
aI2506
aI4928
aI7378
aI4439
aI4896
aI4746
aI4336
aI4352
aI3399
aI5833
aI4120
aI8896
aI9760
aI7332
aI3391
aI4197
aI7867
atp43
a(g1
(g5
S'\x00\x00\x00\x00\x80\xd2\xb8@'
p44
tp45
Rp46
S'ENVO:polar biome (n=252)'
p47
(lp48
I10813
aI20466
aI260
aI15408
aI4437
aI3080
aI1635
aI6198
aI14956
aI4560
aI11553
aI4899
aI5711
aI7711
aI3336
aI22007
aI5497
aI3
aI3961
aI14
aI11799
aI1861
aI13089
aI15018
aI1926
aI18792
aI20259
aI19705
aI1
aI7237
aI11250
aI8979
aI4133
aI10410
aI7590
aI13573
aI4115
aI859
aI5884
aI21926
aI14135
aI1385
aI13302
aI5390
aI2224
aI3517
aI5316
aI6581
aI163
aI11272
aI14909
aI10789
aI8430
aI10566
aI1260
aI6
aI1915
aI6057
aI14755
aI7
aI12556
aI5715
aI4975
aI15287
aI2690
aI3075
aI3336
aI15899
aI3648
aI2
aI19730
aI14879
aI3319
aI4
aI1
aI22695
aI2694
aI8605
aI10115
aI10727
aI13087
aI2913
aI2105
aI6425
aI2964
aI13413
aI2264
aI464
aI8
aI1
aI1
aI17251
aI3931
aI1749
aI0
aI18263
aI16913
aI1650
aI5069
aI17155
aI3005
aI2825
aI11175
aI6179
aI20268
aI0
aI7982
aI8183
aI27
aI0
aI16470
aI11649
aI8338
aI0
aI2
aI3581
aI5787
aI6187
aI4660
aI3443
aI3152
aI6
aI15609
aI21002
aI3
aI11497
aI9134
aI5122
aI938
aI208
aI0
aI12751
aI3577
aI1
aI4727
aI11744
aI15848
aI10111
aI10784
aI3306
aI16163
aI4455
aI11703
aI6033
aI2830
aI9368
aI2467
aI11918
aI11423
aI17729
aI3226
aI6024
aI12841
aI7900
aI22402
aI7418
aI4165
aI10001
aI10034
aI9481
aI13285
aI511
aI6892
aI9989
aI8869
aI10305
aI4455
aI7983
aI6640
aI14819
aI4101
aI4
aI12901
aI14893
aI7721
aI5192
aI13241
aI7607
aI15427
aI22683
aI22265
aI2407
aI6447
aI7216
aI9118
aI0
aI2283
aI1
aI12399
aI6647
aI1188
aI7529
aI2137
aI5566
aI10055
aI7147
aI9112
aI24861
aI14155
aI20339
aI6882
aI18971
aI2392
aI4915
aI13221
aI10446
aI10833
aI9143
aI10498
aI3
aI3981
aI14005
aI32
aI14457
aI2
aI20138
aI2497
aI3845
aI2846
aI3
aI12660
aI7146
aI4664
aI6284
aI10767
aI5758
aI1670
aI2952
aI6198
aI13318
aI3951
aI2253
aI16109
aI24009
aI3479
aI14383
aI10328
aI7623
aI10
aI18937
aI11543
aI9350
aI1
aI3523
aI9625
aI3050
aI3391
aI3392
aI3992
aI4629
aI7615
aI3991
atp49
a(g1
(g5
S'\x00\x00\x00\x00\x00\x1a\xb9@'
p50
tp51
Rp52
S'ENVO:freshwater biome (n=89)'
p53
(lp54
I6426
aI2035
aI2962
aI7120
aI5068
aI6961
aI7924
aI5755
aI12042
aI2988
aI6246
aI7693
aI2939
aI1582
aI2536
aI5239
aI3622
aI13236
aI4014
aI6942
aI3073
aI6751
aI4945
aI8308
aI4014
aI3063
aI4278
aI11567
aI6476
aI10072
aI5674
aI10340
aI13884
aI20955
aI9608
aI6937
aI6367
aI11859
aI6195
aI3916
aI11391
aI3639
aI4798
aI10411
aI14151
aI11121
aI2493
aI11376
aI8226
aI4736
aI7135
aI6409
aI8274
aI5185
aI12766
aI4791
aI5500
aI13765
aI5248
aI4804
aI2667
aI5062
aI17106
aI3501
aI17378
aI10721
aI8807
aI2204
aI5785
aI7827
aI3528
aI11486
aI11591
aI6822
aI4125
aI7022
aI2063
aI7683
aI2642
aI7854
aI4557
aI3306
aI14480
aI9639
aI6346
aI3667
aI11205
aI6796
aI6748
atp55
a(g1
(g5
S'\x00\x00\x00\x00\x00\x9a\xc1@'
p56
tp57
Rp58
S'ENVO:warm deserts and semideserts (n=95)'
p59
(lp60
I13866
aI6349
aI9135
aI7660
aI16435
aI4374
aI4997
aI5070
aI10507
aI7471
aI11700
aI13053
aI6317
aI9593
aI14274
aI4143
aI12523
aI16788
aI5947
aI13258
aI6097
aI12265
aI9012
aI9120
aI7710
aI3582
aI8378
aI6229
aI9086
aI7469
aI7640
aI8212
aI4834
aI3414
aI15339
aI11341
aI10959
aI3738
aI2046
aI10137
aI6148
aI7918
aI9847
aI7638
aI15477
aI18488
aI3481
aI17503
aI8823
aI6278
aI7145
aI16287
aI7477
aI12908
aI7844
aI14501
aI9260
aI10226
aI6865
aI14647
aI14410
aI8113
aI12261
aI10946
aI9294
aI6160
aI6365
aI12695
aI12234
aI12713
aI11660
aI8714
aI9836
aI9718
aI7672
aI7606
aI7000
aI12563
aI3936
aI7206
aI9985
aI3891
aI13305
aI5132
aI17109
aI11197
aI3752
aI9698
aI9025
aI10814
aI5553
aI6656
aI7329
aI17636
aI7069
atp61
a(g1
(g5
S'\x00\x00\x00\x00\x00\xac\xc3@'
p62
tp63
Rp64
S'ENVO:marine biome (n=781)'
p65
(lp66
I5776
aI10407
aI10869
aI3852
aI22775
aI9670
aI13657
aI24428
aI9975
aI10567
aI11886
aI10852
aI376
aI3127
aI1625
aI8747
aI2
aI20367
aI11900
aI25376
aI16267
aI767
aI16250
aI14630
aI2121
aI7200
aI11958
aI13081
aI1182
aI11188
aI429
aI11467
aI2719
aI9116
aI7155
aI20677
aI4806
aI1748
aI15925
aI13783
aI19408
aI10338
aI4644
aI9389
aI16093
aI14951
aI21003
aI3681
aI13793
aI10193
aI17566
aI13101
aI15344
aI3099
aI11126
aI9035
aI9516
aI14794
aI16321
aI6469
aI10581
aI10995
aI6217
aI15636
aI2660
aI23024
aI5
aI6547
aI8440
aI3332
aI3084
aI9557
aI6396
aI3872
aI2514
aI5088
aI28855
aI7136
aI7124
aI5988
aI16440
aI22581
aI18060
aI568
aI9371
aI7412
aI15379
aI13989
aI23346
aI572
aI15972
aI19454
aI4968
aI8349
aI14451
aI20044
aI19652
aI5936
aI10486
aI17817
aI12301
aI8427
aI16991
aI9110
aI5292
aI4685
aI4031
aI7788
aI20328
aI16737
aI7372
aI7336
aI21391
aI4280
aI12494
aI5282
aI12007
aI12072
aI13139
aI12672
aI3645
aI13057
aI23865
aI7
aI8269
aI9787
aI8625
aI5862
aI4415
aI8905
aI10194
aI8364
aI12294
aI9887
aI773
aI14392
aI22534
aI22944
aI11720
aI7896
aI5916
aI3733
aI5861
aI3355
aI2221
aI0
aI14941
aI5022
aI15599
aI12841
aI358
aI12352
aI2321
aI6501
aI16731
aI2386
aI10112
aI17485
aI17929
aI9546
aI7667
aI3225
aI14034
aI13485
aI4714
aI9646
aI16995
aI11428
aI13607
aI14784
aI12025
aI1
aI29096
aI15174
aI1
aI4548
aI29061
aI2626
aI3604
aI9404
aI17679
aI18125
aI8880
aI23165
aI11396
aI1282
aI10298
aI27722
aI12275
aI2175
aI870
aI20772
aI10273
aI16875
aI18843
aI11913
aI20513
aI7911
aI1754
aI17589
aI1812
aI1147
aI9305
aI7133
aI1
aI4463
aI13216
aI14620
aI18748
aI10721
aI8881
aI11020
aI9140
aI15130
aI14529
aI5652
aI13969
aI10666
aI12804
aI18131
aI8203
aI12938
aI13737
aI15194
aI3114
aI14098
aI9450
aI9877
aI23875
aI973
aI11910
aI17756
aI9617
aI360
aI33
aI3246
aI8885
aI934
aI3367
aI10932
aI5203
aI24615
aI12296
aI11559
aI22463
aI9634
aI4274
aI282
aI2583
aI14271
aI5457
aI6315
aI7821
aI7901
aI932
aI21852
aI10584
aI22
aI16506
aI1097
aI18962
aI35810
aI12767
aI8874
aI15067
aI35494
aI20596
aI2686
aI14522
aI8151
aI17942
aI12397
aI5573
aI22943
aI3417
aI13586
aI10020
aI7333
aI9813
aI27130
aI9371
aI13441
aI15958
aI2815
aI21916
aI14160
aI18248
aI19308
aI14401
aI521
aI18147
aI9320
aI2240
aI3480
aI7812
aI192
aI18263
aI1330
aI4160
aI824
aI8368
aI548
aI19420
aI33
aI12217
aI14214
aI5363
aI9190
aI26997
aI4008
aI2342
aI18853
aI14403
aI12617
aI17498
aI9366
aI15508
aI5066
aI3
aI12310
aI2954
aI15641
aI6669
aI6051
aI15621
aI8819
aI21150
aI4163
aI10742
aI13822
aI11023
aI12129
aI4902
aI8689
aI6371
aI4006
aI19466
aI5466
aI12070
aI18428
aI8048
aI10275
aI28230
aI3709
aI13482
aI9596
aI2491
aI10286
aI4899
aI7524
aI15898
aI16364
aI9098
aI6591
aI15292
aI11095
aI7637
aI17463
aI3260
aI11629
aI989
aI12006
aI22912
aI12562
aI8588
aI9105
aI26852
aI1763
aI12803
aI11778
aI13406
aI19749
aI14410
aI13689
aI2802
aI2186
aI10446
aI8404
aI16813
aI1779
aI21566
aI2066
aI12853
aI13848
aI1162
aI11739
aI9075
aI6131
aI14226
aI7555
aI9914
aI15972
aI19365
aI24111
aI16991
aI536
aI13081
aI21479
aI18356
aI3143
aI6015
aI3114
aI9050
aI7610
aI4329
aI8973
aI12775
aI16504
aI13489
aI13715
aI13813
aI7002
aI10984
aI9913
aI5655
aI7022
aI5455
aI5883
aI3643
aI11598
aI13997
aI19564
aI5684
aI9409
aI8772
aI16469
aI12921
aI7041
aI11357
aI12022
aI2339
aI8603
aI407
aI17657
aI7360
aI5771
aI16962
aI9402
aI6339
aI23444
aI14264
aI10892
aI32020
aI3547
aI7556
aI2607
aI11830
aI6507
aI16322
aI14623
aI13352
aI3244
aI3091
aI4786
aI17188
aI15999
aI23700
aI18709
aI15094
aI18991
aI1394
aI13438
aI15129
aI12208
aI12822
aI11245
aI5583
aI10580
aI10613
aI11709
aI5919
aI6797
aI5128
aI7180
aI13293
aI4654
aI11546
aI4233
aI10072
aI8163
aI911
aI6480
aI1096
aI193
aI19210
aI20122
aI19916
aI18995
aI21446
aI21297
aI2378
aI1417
aI7302
aI18207
aI970
aI18458
aI14994
aI3190
aI17427
aI12786
aI17163
aI12811
aI12328
aI11314
aI13410
aI9803
aI18967
aI1071
aI9400
aI13802
aI12683
aI17265
aI17039
aI13870
aI19884
aI14046
aI15715
aI14172
aI7980
aI11323
aI6002
aI13276
aI10434
aI5542
aI3628
aI3881
aI5402
aI11315
aI463
aI2445
aI13045
aI2940
aI12387
aI2447
aI7414
aI12796
aI23792
aI3240
aI11844
aI11331
aI5015
aI5988
aI2569
aI18216
aI6168
aI1320
aI17986
aI2216
aI9422
aI4
aI22846
aI9812
aI1443
aI6389
aI8398
aI25771
aI15778
aI7354
aI1356
aI14694
aI1290
aI21547
aI7425
aI8408
aI3565
aI194
aI8109
aI11503
aI14865
aI10836
aI4138
aI17878
aI8
aI16608
aI15077
aI1929
aI16539
aI27604
aI7559
aI15578
aI14660
aI16247
aI14666
aI5709
aI8255
aI11627
aI15653
aI0
aI9269
aI14423
aI14635
aI3611
aI3535
aI10264
aI19892
aI1829
aI9633
aI1335
aI9682
aI62
aI12071
aI6104
aI28391
aI7596
aI24137
aI13595
aI2462
aI4616
aI13047
aI1915
aI2216
aI12092
aI5326
aI12768
aI24387
aI16984
aI6438
aI6097
aI4869
aI1840
aI370
aI8611
aI12953
aI2803
aI15119
aI12506
aI17975
aI418
aI20343
aI1040
aI380
aI4
aI7338
aI8436
aI9332
aI3664
aI3782
aI10284
aI4242
aI24709
aI5347
aI6486
aI24375
aI16644
aI16522
aI18961
aI7635
aI26863
aI4611
aI13731
aI7027
aI6500
aI5819
aI11272
aI19888
aI11293
aI15886
aI3890
aI17115
aI2861
aI13077
aI4449
aI15846
aI9647
aI12761
aI19505
aI22350
aI2157
aI1512
aI3509
aI21244
aI16881
aI3569
aI10770
aI15184
aI16793
aI9815
aI12983
aI11600
aI17085
aI6147
aI8457
aI6775
aI9627
aI6241
aI15982
aI12491
aI13426
aI15035
aI32229
aI12124
aI3650
aI9565
aI5538
aI1185
aI9041
aI8111
aI7402
aI5622
aI22440
aI15846
aI8
aI19969
aI17784
aI2648
aI13408
aI9293
aI15421
aI4697
aI13261
aI8714
aI12382
aI3852
aI8179
aI11701
aI9888
aI11362
aI14728
aI3
aI22947
aI11859
aI7741
aI9218
aI12480
aI9636
aI8424
aI15006
aI13954
aI2709
aI5898
aI11136
aI37454
aI3778
aI18757
aI5557
aI1357
aI10129
aI2817
aI10914
aI15009
aI14788
aI17444
aI8363
aI6655
aI14498
aI24757
aI9791
aI1318
aI9816
aI15221
aI1
aI12376
aI7725
aI4081
aI13148
aI12613
aI6587
aI4950
aI20016
aI19146
aI553
aI13162
aI1
aI8425
aI1071
aI15604
aI11072
aI9026
aI19894
aI4249
aI8969
aI7
aI15091
aI4364
aI3802
aI988
aI9071
aI7380
aI10125
aI17053
aI16607
atp67
a(g1
(g5
S'\x00\x00\x00\x00\x80\x8a\xc4@'
p68
tp69
Rp70
S'ENVO:temperate needle-leaf forests or woodlands (n=12)'
p71
(lp72
I9878
aI11005
aI12961
aI10475
aI10559
aI21
aI8758
aI11026
aI10812
aI9865
aI8188
aI12308
atp73
a(g1
(g5
S'\x00\x00\x00\x00\x80\x06\xc9@'
p74
tp75
Rp76
S'ENVO:temperate broadleaf and mixed forest biome (n=277)'
p77
(lp78
I14620
aI2641
aI447
aI1274
aI2183
aI19855
aI16816
aI22330
aI1
aI20210
aI1134
aI1066
aI92
aI19113
aI1804
aI18495
aI234
aI280
aI26609
aI402
aI2102
aI19308
aI23826
aI539
aI9492
aI16405
aI15334
aI361
aI219
aI512
aI23520
aI15176
aI24735
aI145
aI22720
aI17412
aI17686
aI1608
aI1946
aI3
aI25447
aI24707
aI6166
aI736
aI10801
aI18308
aI220
aI18998
aI10441
aI29
aI18200
aI18631
aI159
aI2068
aI20014
aI103
aI139
aI21734
aI13285
aI264
aI23438
aI14526
aI11706
aI17589
aI152
aI17975
aI1437
aI19065
aI531
aI16292
aI2659
aI20042
aI193
aI14936
aI965
aI17928
aI136
aI12748
aI1562
aI18315
aI947
aI20893
aI408
aI15694
aI299
aI22325
aI195
aI21254
aI19025
aI19406
aI289
aI357
aI18332
aI18774
aI14739
aI223
aI16469
aI23316
aI24965
aI450
aI16130
aI2678
aI16504
aI964
aI19978
aI1186
aI4105
aI13585
aI19232
aI149
aI655
aI389
aI19870
aI21254
aI23363
aI26804
aI24559
aI19263
aI14387
aI505
aI3057
aI836
aI21501
aI142
aI947
aI13237
aI16434
aI2080
aI0
aI18831
aI28438
aI14977
aI248
aI2334
aI19320
aI20516
aI16972
aI3
aI24694
aI17696
aI19448
aI405
aI9765
aI19363
aI21465
aI1617
aI16777
aI131
aI15291
aI15906
aI14284
aI24493
aI21383
aI20029
aI230
aI138
aI20355
aI135
aI1017
aI15810
aI16776
aI27042
aI1515
aI2212
aI22047
aI13554
aI18295
aI313
aI407
aI2388
aI11766
aI22031
aI24104
aI21124
aI301
aI15994
aI374
aI276
aI55
aI836
aI11911
aI15982
aI1947
aI12813
aI21616
aI15747
aI15433
aI10366
aI633
aI1386
aI19703
aI18855
aI18017
aI22333
aI15639
aI21028
aI22114
aI595
aI25486
aI1161
aI13473
aI28758
aI19115
aI1621
aI20817
aI0
aI20508
aI19149
aI182
aI708
aI24132
aI772
aI19847
aI23306
aI129
aI3035
aI362
aI177
aI797
aI917
aI25297
aI19536
aI18234
aI827
aI14010
aI16711
aI21875
aI12038
aI260
aI1073
aI1664
aI2049
aI19757
aI10931
aI344
aI2435
aI19250
aI1233
aI717
aI1807
aI24522
aI21615
aI821
aI1252
aI852
aI183
aI35
aI265
aI2636
aI0
aI15499
aI15900
aI366
aI20507
aI17557
aI294
aI18224
aI18291
aI18492
aI20337
aI525
aI126
aI14666
aI3375
aI53
aI338
aI22680
aI16888
aI12859
aI2104
aI163
aI23126
aI330
aI2504
aI243
aI2838
aI18227
atp79
a(g1
(g5
S'\x00\x00\x00\x00@\x8a\xcd@'
p80
tp81
Rp82
S'ENVO:tropical humid forests (n=28)'
p83
(lp84
I17530
aI10886
aI19112
aI11819
aI16214
aI15096
aI18833
aI9660
aI10550
aI20066
aI11472
aI15153
aI14513
aI13886
aI22917
aI9553
aI54
aI19620
aI16399
aI17565
aI18491
aI14100
aI10862
aI17643
aI16530
aI79
aI13597
aI15484
atp85
a(g1
(g5
S'\x00\x00\x00\x00\x80\xc4\xcf@'
p86
tp87
Rp88
S'ENVO:temperate coniferous forest biome (n=11)'
p89
(lp90
I19256
aI14403
aI14973
aI14011
aI18928
aI15575
aI21439
aI16385
aI14990
aI16265
aI17075
atp91
a(g1
(g5
S'\x00\x00\x00\x00\x00\x97\xd0@'
p92
tp93
Rp94
S'ENVO:Temperate needle-leaf forests or woodlands (n=21)'
p95
(lp96
I17654
aI16603
aI14244
aI12394
aI15900
aI17873
aI18133
aI17036
aI13991
aI14759
aI18729
aI17395
aI19403
aI19989
aI19195
aI15758
aI12841
aI16988
aI17375
aI14487
aI11938
atp97
a(g1
(g5
S'\x00\x00\x00\x00@\xa6\xd2@'
p98
tp99
Rp100
S'ENVO:terrestrial biome (n=48)'
p101
(lp102
I20392
aI15471
aI17913
aI20758
aI19131
aI13488
aI19173
aI21212
aI20878
aI17474
aI23384
aI16804
aI19649
aI27637
aI20863
aI14332
aI15337
aI7472
aI21575
aI4
aI21657
aI15008
aI15595
aI14747
aI24852
aI17584
aI16553
aI14211
aI17823
aI22803
aI17748
aI21853
aI19623
aI15937
aI20903
aI22053
aI14054
aI19352
aI20833
aI16067
aI20966
aI18660
aI19063
aI13937
aI19174
aI19532
aI14235
aI19960
atp103
a(g1
(g5
S'\x00\x00\x00\x00`J\xd4@'
p104
tp105
Rp106
S'ENVO:temperate grasslands, savannas, and shrubland biome (n=108)'
p107
(lp108
I18773
aI21622
aI20417
aI17640
aI21428
aI18646
aI21075
aI19520
aI1033
aI11179
aI20732
aI17194
aI21893
aI15323
aI24827
aI12583
aI16602
aI1
aI16114
aI8570
aI15978
aI20534
aI24463
aI22738
aI25368
aI23518
aI23407
aI21776
aI22794
aI18476
aI23560
aI11309
aI13459
aI51069
aI12677
aI17565
aI19970
aI23379
aI22339
aI6305
aI19454
aI11887
aI27447
aI22398
aI23713
aI21310
aI15382
aI18255
aI13993
aI24388
aI25577
aI19356
aI17399
aI7729
aI23773
aI18909
aI21246
aI17225
aI21099
aI24240
aI18495
aI20120
aI22773
aI23349
aI26498
aI29646
aI24474
aI18915
aI19861
aI24634
aI21163
aI23222
aI17695
aI20485
aI23896
aI20109
aI21725
aI22785
aI24182
aI20124
aI21866
aI21543
aI20272
aI21574
aI22005
aI22925
aI25391
aI15763
aI27825
aI18267
aI23757
aI21563
aI22750
aI22230
aI97
aI18750
aI15084
aI21233
aI20823
aI25923
aI17918
aI22650
aI4
aI18586
aI15249
aI9956
aI22696
aI11670
atp109
a.