(lp0
(cnumpy.core.multiarray
scalar
p1
(cnumpy
dtype
p2
(S'f8'
p3
I0
I1
tp4
Rp5
(I3
S'<'
p6
NNNI-1
I-1
I0
tp7
bS'\x00\x00\x00\x00\x00\xe0e@'
p8
tp9
Rp10
S'NA (n=53)'
p11
(lp12
I4
aI1
aI175
aI6347
aI3841
aI0
aI5315
aI482
aI111
aI2
aI4166
aI5479
aI4297
aI4464
aI0
aI4250
aI3917
aI0
aI64
aI0
aI0
aI1
aI3
aI385
aI5630
aI0
aI3
aI0
aI1
aI1
aI42
aI4243
aI4252
aI6481
aI348
aI30
aI5626
aI5077
aI4071
aI507
aI192
aI6190
aI4430
aI4206
aI5235
aI3
aI1
aI2
aI117
aI4613
aI2
aI4
aI0
atp13
a(g1
(g5
S'\x00\x00\x00\x00\x000s@'
p14
tp15
Rp16
S'ENVO:bodily fluid (n=135)'
p17
(lp18
I149
aI339
aI634
aI137
aI307
aI425
aI68
aI224
aI479
aI234
aI158
aI499
aI561
aI341
aI148
aI281
aI448
aI433
aI426
aI241
aI212
aI70
aI256
aI65
aI456
aI565
aI282
aI305
aI681
aI150
aI168
aI363
aI631
aI0
aI517
aI0
aI361
aI258
aI287
aI333
aI315
aI156
aI417
aI441
aI575
aI305
aI312
aI71
aI126
aI267
aI259
aI278
aI91
aI319
aI527
aI174
aI106
aI102
aI143
aI67
aI366
aI778
aI373
aI410
aI79
aI206
aI347
aI728
aI435
aI140
aI370
aI328
aI295
aI556
aI149
aI405
aI367
aI150
aI438
aI339
aI279
aI242
aI404
aI899
aI130
aI327
aI400
aI545
aI389
aI175
aI270
aI276
aI90
aI81
aI251
aI659
aI451
aI206
aI328
aI198
aI458
aI0
aI351
aI207
aI573
aI309
aI311
aI226
aI326
aI0
aI278
aI173
aI129
aI331
aI223
aI160
aI920
aI554
aI258
aI310
aI166
aI356
aI210
aI221
aI425
aI280
aI723
aI340
aI347
aI402
aI329
aI311
aI398
aI219
aI189
atp19
a(g1
(g5
S'\x00\x00\x00\x00\x00\x00~@'
p20
tp21
Rp22
S'ENVO:saliva (n=554)'
p23
(lp24
I513
aI216
aI437
aI762
aI613
aI453
aI509
aI588
aI241
aI618
aI576
aI229
aI460
aI550
aI506
aI222
aI215
aI449
aI486
aI511
aI570
aI189
aI552
aI602
aI154
aI569
aI656
aI1335
aI487
aI534
aI472
aI198
aI513
aI212
aI498
aI673
aI576
aI178
aI485
aI523
aI540
aI483
aI583
aI539
aI464
aI517
aI776
aI513
aI87
aI227
aI520
aI415
aI225
aI635
aI233
aI566
aI211
aI500
aI140
aI158
aI539
aI212
aI565
aI788
aI237
aI275
aI517
aI530
aI714
aI453
aI590
aI518
aI222
aI555
aI2049
aI148
aI483
aI449
aI264
aI536
aI453
aI5263
aI548
aI4667
aI509
aI207
aI379
aI505
aI553
aI493
aI226
aI187
aI405
aI467
aI646
aI531
aI241
aI521
aI238
aI1627
aI210
aI602
aI663
aI243
aI243
aI441
aI221
aI145
aI557
aI220
aI659
aI193
aI597
aI163
aI551
aI183
aI258
aI212
aI244
aI442
aI577
aI496
aI516
aI562
aI221
aI406
aI415
aI229
aI491
aI550
aI722
aI320
aI594
aI435
aI658
aI639
aI149
aI560
aI179
aI461
aI454
aI572
aI195
aI693
aI186
aI481
aI787
aI521
aI247
aI203
aI835
aI224
aI650
aI521
aI247
aI552
aI467
aI613
aI440
aI271
aI208
aI213
aI514
aI534
aI542
aI506
aI234
aI241
aI579
aI123
aI232
aI740
aI557
aI513
aI415
aI519
aI491
aI524
aI535
aI629
aI470
aI281
aI214
aI215
aI199
aI520
aI213
aI655
aI540
aI199
aI243
aI126
aI215
aI530
aI193
aI227
aI492
aI230
aI615
aI459
aI172
aI175
aI487
aI565
aI474
aI267
aI653
aI519
aI637
aI258
aI282
aI566
aI581
aI267
aI517
aI542
aI4243
aI191
aI176
aI440
aI500
aI153
aI250
aI515
aI231
aI980
aI269
aI452
aI197
aI507
aI162
aI617
aI547
aI594
aI475
aI597
aI535
aI582
aI638
aI429
aI631
aI561
aI499
aI394
aI218
aI315
aI518
aI729
aI166
aI264
aI579
aI235
aI198
aI273
aI516
aI190
aI587
aI508
aI608
aI530
aI242
aI522
aI555
aI202
aI182
aI228
aI486
aI465
aI300
aI239
aI190
aI189
aI586
aI171
aI293
aI553
aI855
aI565
aI468
aI275
aI530
aI548
aI545
aI263
aI553
aI459
aI641
aI408
aI221
aI444
aI266
aI475
aI255
aI140
aI707
aI921
aI597
aI243
aI426
aI243
aI163
aI461
aI428
aI253
aI516
aI171
aI516
aI186
aI495
aI465
aI213
aI470
aI151
aI569
aI220
aI175
aI472
aI639
aI401
aI184
aI206
aI255
aI203
aI491
aI279
aI525
aI511
aI222
aI570
aI285
aI563
aI205
aI229
aI210
aI532
aI130
aI494
aI554
aI684
aI235
aI239
aI198
aI660
aI355
aI559
aI549
aI194
aI468
aI412
aI538
aI565
aI4332
aI204
aI275
aI581
aI519
aI240
aI565
aI4154
aI276
aI427
aI508
aI627
aI225
aI5217
aI653
aI611
aI465
aI220
aI491
aI538
aI161
aI176
aI686
aI556
aI243
aI609
aI439
aI492
aI651
aI587
aI472
aI202
aI600
aI451
aI497
aI611
aI237
aI536
aI154
aI606
aI6043
aI629
aI157
aI661
aI194
aI514
aI491
aI549
aI148
aI289
aI209
aI1
aI620
aI529
aI503
aI4689
aI469
aI213
aI6239
aI526
aI645
aI483
aI271
aI515
aI550
aI173
aI213
aI498
aI629
aI247
aI885
aI198
aI241
aI270
aI185
aI454
aI486
aI205
aI731
aI459
aI477
aI649
aI627
aI2050
aI196
aI471
aI509
aI680
aI292
aI780
aI162
aI541
aI544
aI182
aI556
aI509
aI217
aI216
aI494
aI505
aI202
aI604
aI191
aI484
aI5256
aI216
aI473
aI509
aI483
aI458
aI4340
aI729
aI479
aI243
aI695
aI547
aI447
aI5528
aI580
aI549
aI539
aI208
aI215
aI742
aI546
aI180
aI559
aI180
aI513
aI546
aI180
aI200
aI201
aI557
aI494
aI720
aI322
aI199
aI524
aI0
aI144
aI643
aI532
aI237
aI284
aI179
aI394
aI272
aI652
aI4628
aI212
aI550
aI479
aI406
aI657
aI282
aI468
aI0
aI736
aI493
aI527
aI482
aI658
aI288
aI180
aI548
aI469
aI483
aI461
aI565
aI584
aI217
aI224
aI433
aI176
aI631
aI228
aI234
aI591
aI823
aI261
aI5164
aI470
aI302
aI2537
aI234
aI451
aI214
aI595
aI432
aI502
aI440
aI613
aI577
aI278
aI254
aI161
aI443
aI492
aI588
aI462
aI542
aI495
atp25
a(g1
(g5
S'\x00\x00\x00\x00\x00\x90\x7f@'
p26
tp27
Rp28
S'ENVO:microbial mat (n=383)'
p29
(lp30
I415
aI315
aI422
aI404
aI443
aI152
aI580
aI292
aI462
aI184
aI503
aI242
aI688
aI966
aI1
aI502
aI1224
aI498
aI541
aI708
aI447
aI777
aI1680
aI759
aI472
aI646
aI541
aI2246
aI421
aI70
aI1006
aI505
aI275
aI1375
aI916
aI481
aI482
aI1364
aI1133
aI441
aI249
aI1010
aI598
aI563
aI616
aI323
aI293
aI530
aI203
aI654
aI445
aI702
aI512
aI570
aI0
aI1049
aI514
aI527
aI671
aI454
aI2167
aI692
aI0
aI683
aI199
aI390
aI486
aI444
aI482
aI782
aI228
aI364
aI743
aI366
aI370
aI1567
aI352
aI2648
aI477
aI734
aI1140
aI276
aI450
aI426
aI298
aI617
aI596
aI1161
aI640
aI313
aI1001
aI465
aI511
aI1396
aI491
aI465
aI321
aI659
aI387
aI264
aI276
aI501
aI367
aI591
aI962
aI720
aI457
aI448
aI506
aI500
aI334
aI424
aI1558
aI512
aI0
aI361
aI518
aI537
aI1402
aI913
aI318
aI312
aI533
aI451
aI524
aI922
aI620
aI1937
aI0
aI284
aI494
aI258
aI1437
aI357
aI576
aI1079
aI1150
aI417
aI1873
aI397
aI1590
aI1062
aI623
aI458
aI403
aI499
aI824
aI1583
aI740
aI1085
aI463
aI565
aI1283
aI546
aI207
aI305
aI571
aI552
aI601
aI168
aI543
aI452
aI1087
aI418
aI346
aI563
aI458
aI1577
aI338
aI1268
aI0
aI346
aI865
aI596
aI394
aI539
aI748
aI1391
aI536
aI0
aI843
aI419
aI219
aI508
aI1404
aI1232
aI361
aI1687
aI1690
aI1427
aI715
aI511
aI454
aI913
aI573
aI438
aI439
aI759
aI535
aI413
aI799
aI294
aI430
aI1123
aI366
aI1723
aI0
aI1026
aI449
aI644
aI429
aI1
aI728
aI500
aI655
aI677
aI1344
aI347
aI422
aI275
aI428
aI538
aI450
aI408
aI1624
aI301
aI408
aI654
aI308
aI762
aI870
aI2101
aI229
aI296
aI468
aI453
aI348
aI525
aI338
aI0
aI743
aI509
aI1041
aI380
aI448
aI660
aI265
aI0
aI626
aI445
aI576
aI250
aI503
aI419
aI258
aI430
aI505
aI1995
aI265
aI2432
aI476
aI487
aI327
aI325
aI388
aI288
aI443
aI853
aI519
aI5883
aI706
aI0
aI1056
aI590
aI1664
aI394
aI1616
aI533
aI864
aI514
aI317
aI907
aI357
aI598
aI559
aI1019
aI935
aI1856
aI427
aI569
aI456
aI283
aI598
aI544
aI957
aI438
aI881
aI273
aI264
aI0
aI954
aI1695
aI536
aI149
aI493
aI1014
aI2000
aI182
aI972
aI514
aI258
aI366
aI545
aI258
aI861
aI287
aI349
aI5653
aI421
aI542
aI279
aI467
aI908
aI484
aI563
aI573
aI642
aI281
aI444
aI194
aI605
aI0
aI651
aI557
aI338
aI616
aI267
aI602
aI0
aI742
aI341
aI490
aI776
aI445
aI682
aI436
aI263
aI500
aI627
aI388
aI1579
aI400
aI1174
aI434
aI0
aI436
aI433
aI844
aI1879
aI772
aI1874
aI1741
aI431
aI261
aI566
aI412
aI422
aI545
aI588
aI478
aI944
aI577
aI525
aI450
aI525
aI354
aI252
aI463
aI254
aI0
aI917
aI394
aI844
atp31
a(g1
(g5
S'\x00\x00\x00\x00\x00P\x81@'
p32
tp33
Rp34
S'ENVO:mucus (n=185)'
p35
(lp36
I155
aI464
aI1162
aI1469
aI990
aI1244
aI1569
aI145
aI52
aI459
aI99
aI667
aI258
aI440
aI1433
aI144
aI202
aI1
aI518
aI0
aI441
aI669
aI867
aI825
aI160
aI255
aI63
aI1430
aI657
aI338
aI1340
aI661
aI376
aI0
aI1
aI604
aI59
aI77
aI1013
aI420
aI826
aI890
aI307
aI1
aI161
aI277
aI444
aI615
aI767
aI877
aI1
aI879
aI403
aI140
aI522
aI835
aI1231
aI691
aI1193
aI1340
aI260
aI2318
aI1674
aI554
aI550
aI326
aI381
aI740
aI1590
aI411
aI451
aI534
aI833
aI46
aI895
aI2405
aI272
aI660
aI214
aI550
aI179
aI946
aI898
aI374
aI560
aI0
aI1045
aI599
aI293
aI1315
aI386
aI2201
aI950
aI297
aI803
aI57
aI348
aI688
aI0
aI950
aI314
aI729
aI1066
aI101
aI306
aI1176
aI288
aI272
aI757
aI478
aI326
aI1660
aI406
aI0
aI3
aI825
aI1499
aI746
aI811
aI180
aI32
aI1844
aI802
aI8
aI529
aI13
aI709
aI587
aI1
aI314
aI1196
aI2694
aI1062
aI164
aI1
aI464
aI1080
aI1007
aI415
aI1221
aI958
aI403
aI724
aI769
aI501
aI779
aI866
aI113
aI417
aI531
aI36
aI477
aI1
aI44
aI487
aI1324
aI1513
aI847
aI1518
aI2519
aI758
aI2251
aI324
aI708
aI1328
aI3
aI1389
aI1020
aI929
aI1327
aI715
aI143
aI455
aI807
aI525
aI1156
aI570
aI2087
aI680
aI324
aI3
aI2671
aI32
aI677
aI1070
atp37
a(g1
(g5
S'\x00\x00\x00\x00\x00\xd8\x84@'
p38
tp39
Rp40
S'ENVO:sebum (n=1197)'
p41
(lp42
I1748
aI1208
aI849
aI516
aI404
aI674
aI1407
aI367
aI917
aI1930
aI365
aI2528
aI493
aI89
aI1139
aI790
aI582
aI154
aI3308
aI1236
aI158
aI240
aI223
aI2068
aI447
aI19
aI2284
aI421
aI2715
aI256
aI182
aI3390
aI1028
aI194
aI3715
aI538
aI2010
aI176
aI110
aI438
aI1929
aI100
aI2535
aI1858
aI967
aI1743
aI732
aI1071
aI1135
aI209
aI1341
aI1178
aI2068
aI1814
aI273
aI671
aI1635
aI1057
aI727
aI1979
aI664
aI567
aI1591
aI735
aI151
aI188
aI1014
aI2153
aI182
aI707
aI155
aI472
aI265
aI621
aI3023
aI2781
aI525
aI518
aI150
aI1031
aI1326
aI786
aI730
aI483
aI3021
aI668
aI752
aI160
aI3056
aI162
aI3467
aI84
aI679
aI1336
aI1577
aI97
aI1544
aI886
aI1410
aI890
aI1447
aI195
aI2873
aI1648
aI242
aI344
aI1731
aI372
aI401
aI324
aI771
aI97
aI35
aI1081
aI4
aI156
aI772
aI1096
aI279
aI242
aI59
aI853
aI657
aI223
aI604
aI101
aI517
aI1535
aI2870
aI1660
aI1181
aI138
aI189
aI679
aI1758
aI332
aI529
aI1051
aI332
aI2717
aI222
aI476
aI387
aI620
aI1501
aI1433
aI456
aI492
aI673
aI3099
aI1132
aI997
aI2841
aI1028
aI94
aI402
aI493
aI2317
aI3850
aI2343
aI1092
aI999
aI47
aI0
aI720
aI254
aI2755
aI1385
aI2491
aI654
aI102
aI1079
aI760
aI145
aI317
aI259
aI531
aI187
aI981
aI253
aI1176
aI980
aI874
aI770
aI339
aI372
aI127
aI723
aI300
aI920
aI1680
aI1886
aI1256
aI1264
aI365
aI707
aI162
aI754
aI296
aI223
aI1048
aI1407
aI2198
aI321
aI1689
aI2127
aI556
aI3794
aI291
aI2338
aI336
aI2196
aI1882
aI883
aI717
aI457
aI396
aI1066
aI1860
aI3408
aI211
aI190
aI2024
aI169
aI811
aI1514
aI2376
aI64
aI565
aI403
aI344
aI1576
aI712
aI353
aI477
aI2467
aI334
aI2081
aI261
aI2379
aI320
aI1652
aI3251
aI1109
aI537
aI454
aI246
aI2459
aI93
aI1625
aI141
aI187
aI164
aI476
aI143
aI1428
aI158
aI2538
aI78
aI993
aI376
aI3340
aI1563
aI713
aI697
aI568
aI148
aI815
aI538
aI165
aI2131
aI107
aI154
aI186
aI223
aI1081
aI157
aI1453
aI273
aI562
aI1765
aI546
aI1840
aI166
aI476
aI2207
aI1327
aI1265
aI380
aI137
aI1764
aI261
aI674
aI246
aI335
aI616
aI209
aI667
aI207
aI110
aI758
aI941
aI458
aI349
aI392
aI557
aI656
aI1301
aI792
aI171
aI405
aI966
aI925
aI704
aI2252
aI1814
aI176
aI1061
aI559
aI447
aI297
aI360
aI1650
aI2757
aI1574
aI504
aI2349
aI1242
aI1029
aI1199
aI1794
aI632
aI1335
aI769
aI280
aI1151
aI198
aI2130
aI252
aI518
aI201
aI311
aI567
aI353
aI539
aI925
aI2220
aI1510
aI160
aI240
aI1050
aI1609
aI1167
aI2148
aI272
aI586
aI1014
aI550
aI1546
aI1115
aI2187
aI18
aI154
aI1073
aI904
aI645
aI1245
aI723
aI1720
aI432
aI281
aI306
aI2924
aI559
aI1214
aI218
aI1275
aI249
aI798
aI1557
aI91
aI2320
aI283
aI287
aI546
aI218
aI1117
aI126
aI614
aI1036
aI151
aI567
aI1595
aI492
aI174
aI989
aI2532
aI47
aI694
aI245
aI1291
aI880
aI390
aI1718
aI390
aI2829
aI791
aI245
aI186
aI272
aI1617
aI808
aI1351
aI1866
aI1693
aI689
aI685
aI927
aI263
aI1201
aI303
aI1140
aI1904
aI531
aI712
aI357
aI1118
aI878
aI814
aI1672
aI2277
aI266
aI187
aI1514
aI1546
aI1639
aI382
aI493
aI320
aI175
aI124
aI1224
aI141
aI249
aI545
aI55
aI216
aI2056
aI46
aI605
aI871
aI380
aI786
aI503
aI0
aI942
aI300
aI238
aI619
aI2254
aI724
aI777
aI1928
aI366
aI2043
aI565
aI1290
aI681
aI404
aI573
aI302
aI265
aI376
aI404
aI231
aI406
aI1337
aI304
aI777
aI181
aI239
aI745
aI224
aI476
aI370
aI497
aI995
aI450
aI2722
aI767
aI118
aI1170
aI2346
aI1595
aI213
aI702
aI427
aI991
aI1535
aI185
aI228
aI796
aI500
aI1077
aI1053
aI743
aI268
aI578
aI1300
aI551
aI1203
aI836
aI259
aI520
aI1392
aI365
aI545
aI3178
aI1406
aI767
aI143
aI2589
aI1961
aI781
aI0
aI1235
aI1507
aI250
aI253
aI208
aI1675
aI1752
aI1048
aI156
aI1077
aI425
aI931
aI238
aI2342
aI116
aI256
aI356
aI900
aI435
aI818
aI175
aI1435
aI2183
aI198
aI133
aI331
aI515
aI3359
aI1386
aI844
aI703
aI406
aI1163
aI89
aI350
aI449
aI877
aI1582
aI841
aI389
aI1910
aI157
aI276
aI1454
aI1863
aI367
aI411
aI1979
aI1289
aI1191
aI1610
aI1792
aI371
aI693
aI182
aI1334
aI342
aI166
aI133
aI2311
aI192
aI514
aI1512
aI565
aI1675
aI2164
aI1203
aI580
aI2103
aI154
aI630
aI76
aI1641
aI273
aI3392
aI2345
aI542
aI1639
aI203
aI644
aI236
aI1992
aI446
aI2097
aI1184
aI414
aI2610
aI384
aI446
aI257
aI154
aI139
aI575
aI2637
aI168
aI575
aI1012
aI600
aI2242
aI594
aI2369
aI118
aI2277
aI996
aI339
aI873
aI4479
aI1887
aI1281
aI1202
aI1099
aI1944
aI608
aI634
aI954
aI614
aI523
aI2545
aI75
aI556
aI171
aI167
aI272
aI3497
aI3929
aI1573
aI205
aI429
aI481
aI2
aI998
aI119
aI1241
aI631
aI442
aI1128
aI727
aI1518
aI561
aI709
aI706
aI181
aI2536
aI978
aI751
aI141
aI1335
aI1342
aI544
aI113
aI1129
aI879
aI301
aI1481
aI523
aI1293
aI277
aI3415
aI3344
aI985
aI971
aI2125
aI314
aI494
aI375
aI334
aI926
aI215
aI1588
aI1296
aI123
aI719
aI427
aI550
aI3122
aI124
aI1010
aI1321
aI2350
aI541
aI770
aI248
aI739
aI121
aI667
aI364
aI284
aI857
aI2609
aI925
aI82
aI1237
aI345
aI248
aI622
aI179
aI178
aI158
aI1636
aI532
aI315
aI532
aI687
aI0
aI1112
aI285
aI621
aI2064
aI1044
aI1000
aI987
aI168
aI1452
aI200
aI580
aI222
aI1110
aI208
aI1042
aI551
aI381
aI4928
aI247
aI203
aI507
aI1215
aI1482
aI5130
aI284
aI561
aI2931
aI212
aI246
aI1203
aI1238
aI288
aI688
aI1090
aI819
aI1304
aI462
aI241
aI2615
aI402
aI1245
aI769
aI2546
aI1
aI3376
aI816
aI2017
aI314
aI559
aI204
aI148
aI418
aI1812
aI686
aI972
aI927
aI173
aI621
aI444
aI1450
aI1294
aI1598
aI1632
aI1211
aI1845
aI398
aI323
aI147
aI2710
aI197
aI307
aI362
aI130
aI1532
aI654
aI879
aI367
aI444
aI1699
aI280
aI1642
aI2042
aI545
aI819
aI1446
aI542
aI398
aI1749
aI3263
aI147
aI1188
aI356
aI1248
aI438
aI2483
aI989
aI504
aI1386
aI4327
aI1482
aI171
aI550
aI2772
aI222
aI1226
aI39
aI156
aI682
aI343
aI268
aI1471
aI116
aI843
aI334
aI586
aI17
aI231
aI1281
aI1359
aI3415
aI256
aI712
aI804
aI1312
aI1982
aI523
aI193
aI1496
aI299
aI1181
aI1453
aI269
aI112
aI1193
aI1557
aI411
aI661
aI1430
aI2218
aI1109
aI1006
aI2194
aI710
aI2634
aI1210
aI269
aI462
aI378
aI410
aI161
aI309
aI1070
aI627
aI238
aI613
aI436
aI597
aI1648
aI2080
aI491
aI2784
aI793
aI1232
aI292
aI703
aI3941
aI264
aI313
aI760
aI294
aI1028
aI1257
aI368
aI1064
aI374
aI2581
aI440
aI446
aI196
aI2621
aI272
aI466
aI150
aI270
aI444
aI1321
aI197
aI842
aI1809
aI64
aI932
aI763
aI1901
aI1443
aI168
aI963
aI1844
aI123
aI637
aI718
aI196
aI2099
aI210
aI2519
aI1110
aI433
aI230
aI1107
aI505
aI317
aI982
aI3189
aI834
aI179
aI869
aI811
aI2832
aI1133
aI244
aI423
aI1398
aI51
aI296
aI838
aI554
aI944
aI4122
aI875
aI97
aI251
aI314
aI128
aI0
aI218
aI323
aI1098
aI536
aI398
aI1967
aI1732
aI1181
aI1629
aI201
aI204
aI2048
aI241
aI3517
aI747
aI2115
aI203
aI2957
aI775
aI2793
aI253
aI451
aI228
aI213
aI1619
aI104
aI213
aI1728
aI2529
aI1243
aI1043
aI276
aI2772
aI1476
aI249
aI1684
aI587
aI2090
aI2003
aI1534
aI228
aI519
aI1145
aI1130
aI721
aI63
aI957
aI200
aI492
aI242
aI220
aI502
aI1812
aI74
aI532
aI890
aI1852
aI847
aI1204
aI783
aI463
aI1163
aI1095
aI249
aI322
aI1001
aI525
aI2451
aI530
aI1721
aI1805
aI339
aI3008
aI372
aI2678
aI355
aI289
aI111
aI1365
aI204
aI868
aI663
aI310
aI1078
aI1214
aI1073
aI2314
aI271
aI1882
aI1
aI1463
aI447
aI173
aI599
aI344
aI343
aI2077
aI2600
aI808
aI1457
aI737
aI228
aI1233
aI180
aI1953
aI816
aI100
aI212
aI1960
aI2689
aI1752
aI148
aI905
aI216
aI798
aI460
aI2373
aI270
aI393
aI441
aI381
aI1641
aI47
aI755
aI968
aI2489
aI555
aI701
aI2424
aI190
aI221
aI179
aI940
aI1213
aI94
aI304
aI2498
aI775
aI1754
aI723
aI415
aI637
aI565
aI112
aI380
aI326
aI132
aI62
aI1227
aI931
aI106
aI0
aI1208
aI546
aI452
aI810
aI1116
aI1509
aI357
aI283
aI1208
aI4466
aI170
aI910
aI660
aI67
aI1178
aI2005
aI3790
aI285
aI3372
aI1415
aI226
aI755
aI672
aI416
aI323
aI1993
aI94
aI325
aI231
aI417
aI501
aI993
aI3795
aI1004
aI758
aI111
aI991
aI3024
aI1956
aI240
aI2849
aI1319
aI124
aI242
aI150
aI405
aI93
aI73
aI640
aI513
aI2306
aI285
aI312
aI732
aI2157
aI713
aI364
aI318
aI1186
aI2683
aI1244
aI464
aI483
aI1674
aI641
aI291
aI661
aI1078
aI657
aI452
aI2128
aI256
aI76
aI669
aI504
aI111
aI28
aI168
aI1924
aI599
aI667
aI138
aI1418
atp43
a(g1
(g5
S'\x00\x00\x00\x00\x00\xf4\x8c@'
p44
tp45
Rp46
S'ENVO:feces (n=624)'
p47
(lp48
I976
aI711
aI1039
aI1099
aI822
aI635
aI857
aI1214
aI1295
aI746
aI1246
aI842
aI1
aI6590
aI501
aI5827
aI1101
aI863
aI782
aI931
aI1191
aI938
aI1027
aI944
aI910
aI6012
aI769
aI736
aI979
aI1194
aI916
aI1016
aI1571
aI4511
aI446
aI1177
aI817
aI855
aI1473
aI854
aI388
aI1210
aI1040
aI554
aI1471
aI1192
aI1146
aI786
aI794
aI7536
aI722
aI928
aI708
aI1027
aI654
aI1779
aI1096
aI1161
aI826
aI1049
aI1235
aI1163
aI869
aI1323
aI999
aI654
aI743
aI912
aI892
aI527
aI591
aI1054
aI650
aI668
aI4
aI0
aI1117
aI938
aI963
aI1103
aI1262
aI1204
aI807
aI349
aI1020
aI524
aI961
aI926
aI1144
aI808
aI1172
aI293
aI1060
aI1017
aI875
aI728
aI690
aI3788
aI1226
aI1969
aI1041
aI474
aI795
aI789
aI844
aI1284
aI537
aI1342
aI1031
aI1195
aI984
aI500
aI234
aI601
aI831
aI1011
aI918
aI1229
aI633
aI1201
aI940
aI1341
aI1285
aI692
aI357
aI1080
aI1115
aI957
aI1052
aI393
aI919
aI1466
aI989
aI1105
aI4246
aI1154
aI1046
aI2
aI566
aI677
aI853
aI1258
aI749
aI430
aI846
aI663
aI1035
aI819
aI1049
aI266
aI748
aI993
aI1045
aI811
aI1080
aI505
aI1054
aI902
aI1008
aI866
aI2
aI1683
aI1027
aI997
aI639
aI973
aI828
aI911
aI750
aI1429
aI1353
aI763
aI947
aI548
aI1511
aI1139
aI974
aI313
aI683
aI345
aI929
aI971
aI358
aI1
aI762
aI4724
aI743
aI1139
aI1014
aI1183
aI269
aI1092
aI1385
aI708
aI5655
aI1437
aI707
aI1010
aI1290
aI1093
aI1167
aI850
aI777
aI917
aI800
aI4888
aI399
aI992
aI264
aI1257
aI1022
aI880
aI651
aI772
aI864
aI763
aI472
aI990
aI763
aI848
aI1157
aI902
aI637
aI1135
aI798
aI453
aI1211
aI849
aI680
aI1186
aI1355
aI1133
aI764
aI861
aI754
aI5708
aI1051
aI326
aI30
aI991
aI674
aI840
aI927
aI257
aI2871
aI5143
aI1166
aI770
aI1133
aI515
aI890
aI1133
aI1095
aI1431
aI880
aI910
aI526
aI941
aI891
aI781
aI1144
aI848
aI938
aI897
aI919
aI988
aI860
aI1094
aI231
aI1212
aI523
aI316
aI0
aI464
aI993
aI887
aI1330
aI887
aI1104
aI940
aI1240
aI902
aI899
aI560
aI853
aI1172
aI559
aI684
aI966
aI1015
aI1437
aI958
aI293
aI631
aI0
aI614
aI937
aI1013
aI1012
aI970
aI723
aI742
aI1103
aI688
aI1043
aI1029
aI1157
aI799
aI651
aI556
aI882
aI1199
aI809
aI818
aI686
aI668
aI942
aI1548
aI1061
aI656
aI1059
aI1000
aI939
aI532
aI1112
aI358
aI712
aI836
aI1141
aI4859
aI1446
aI1246
aI363
aI511
aI1183
aI1074
aI4380
aI709
aI919
aI1162
aI636
aI698
aI979
aI1303
aI1584
aI1159
aI933
aI885
aI1203
aI890
aI1052
aI1001
aI665
aI700
aI1041
aI528
aI807
aI445
aI1012
aI724
aI1136
aI923
aI1280
aI296
aI941
aI719
aI848
aI1193
aI831
aI1012
aI781
aI766
aI885
aI808
aI894
aI4373
aI1035
aI6624
aI752
aI670
aI959
aI736
aI931
aI698
aI632
aI896
aI872
aI827
aI770
aI757
aI722
aI1226
aI884
aI920
aI858
aI818
aI975
aI901
aI892
aI896
aI1008
aI910
aI965
aI904
aI956
aI840
aI790
aI1280
aI656
aI1137
aI980
aI402
aI960
aI932
aI405
aI1625
aI1310
aI1195
aI899
aI4200
aI919
aI715
aI1045
aI476
aI5834
aI1081
aI631
aI883
aI738
aI547
aI1468
aI1264
aI835
aI1161
aI908
aI1066
aI1051
aI1012
aI606
aI826
aI1022
aI3695
aI789
aI555
aI1149
aI4995
aI414
aI613
aI1061
aI1038
aI1205
aI871
aI1108
aI0
aI1087
aI923
aI416
aI1263
aI989
aI990
aI850
aI0
aI983
aI965
aI374
aI715
aI3793
aI1178
aI1148
aI902
aI832
aI1060
aI780
aI891
aI502
aI151
aI963
aI1262
aI1365
aI556
aI6391
aI845
aI3354
aI462
aI1013
aI654
aI4896
aI2765
aI1
aI552
aI999
aI881
aI898
aI5481
aI1214
aI316
aI774
aI972
aI778
aI891
aI1044
aI1228
aI3
aI1168
aI912
aI609
aI903
aI3828
aI994
aI814
aI980
aI417
aI854
aI952
aI910
aI923
aI1222
aI1088
aI1054
aI6254
aI945
aI5259
aI781
aI5479
aI864
aI887
aI737
aI777
aI1114
aI5
aI357
aI4752
aI572
aI6108
aI1601
aI1210
aI584
aI972
aI703
aI634
aI1500
aI861
aI809
aI1081
aI1158
aI371
aI2837
aI800
aI848
aI1235
aI5246
aI1161
aI1096
aI1256
aI394
aI872
aI784
aI1138
aI746
aI1083
aI669
aI1104
aI5331
aI112
aI883
aI1194
aI296
aI866
aI957
aI884
aI1130
aI1377
aI1215
aI1172
aI994
aI1
aI499
aI1005
aI1087
aI640
aI1063
aI934
aI698
aI766
aI383
aI1614
aI829
aI2832
aI1867
aI1026
aI827
aI1068
aI1077
aI1024
aI1037
aI1693
aI654
aI1057
aI1004
aI473
aI1035
aI1449
aI438
aI834
aI477
aI899
aI695
aI1179
aI6995
aI1049
aI902
aI949
aI3881
aI1521
aI1192
aI1004
aI1088
aI786
aI865
aI1038
aI936
aI729
aI957
aI566
atp49
a(g1
(g5
S'\x00\x00\x00\x00\x000\x9f@'
p50
tp51
Rp52
S'ENVO:organic material feature (n=319)'
p53
(lp54
I896
aI2459
aI4358
aI6583
aI2
aI1597
aI3480
aI3578
aI1035
aI1729
aI3930
aI6667
aI0
aI3856
aI2043
aI1896
aI2413
aI30
aI208
aI450
aI1202
aI9350
aI1703
aI2738
aI5143
aI647
aI767
aI1095
aI703
aI1837
aI168
aI4400
aI1210
aI3246
aI2273
aI283
aI778
aI2809
aI1996
aI3338
aI4176
aI5075
aI621
aI2380
aI822
aI2009
aI3430
aI955
aI3553
aI1577
aI169
aI1619
aI1095
aI1963
aI160
aI1815
aI1437
aI299
aI0
aI3595
aI155
aI513
aI8468
aI213
aI415
aI749
aI845
aI2
aI2981
aI993
aI1587
aI1428
aI3240
aI3247
aI2104
aI2161
aI743
aI3244
aI1194
aI3310
aI590
aI187
aI3453
aI3162
aI555
aI2868
aI866
aI2011
aI2264
aI1238
aI4742
aI3165
aI3195
aI1188
aI1223
aI954
aI2986
aI5444
aI6974
aI4209
aI2003
aI75
aI4118
aI3848
aI3101
aI5040
aI1711
aI453
aI3
aI2383
aI3270
aI4884
aI85
aI6019
aI1243
aI1671
aI170
aI146
aI732
aI4963
aI1097
aI2849
aI2229
aI6301
aI192
aI2827
aI2995
aI146
aI3590
aI238
aI1419
aI722
aI949
aI2189
aI1749
aI7268
aI3025
aI4614
aI471
aI4244
aI4315
aI1791
aI4614
aI5105
aI6378
aI3824
aI13
aI4095
aI2629
aI1811
aI1328
aI3201
aI2039
aI459
aI7204
aI2777
aI348
aI475
aI2274
aI6938
aI3908
aI3729
aI3194
aI1704
aI2306
aI4365
aI6044
aI3882
aI687
aI231
aI2054
aI5339
aI2170
aI5015
aI451
aI527
aI311
aI3628
aI1955
aI557
aI3434
aI1150
aI34
aI2385
aI462
aI975
aI2427
aI107
aI3830
aI197
aI1543
aI315
aI857
aI319
aI694
aI2321
aI2533
aI2297
aI4330
aI414
aI25
aI2365
aI682
aI2394
aI1449
aI3531
aI7765
aI2644
aI2834
aI6577
aI4225
aI0
aI5534
aI3728
aI8464
aI107
aI3305
aI1177
aI1246
aI458
aI3
aI405
aI1339
aI1664
aI4650
aI1842
aI4103
aI1495
aI646
aI701
aI2602
aI1949
aI473
aI3786
aI471
aI465
aI557
aI4210
aI2329
aI4879
aI244
aI417
aI4934
aI2533
aI1147
aI80
aI1228
aI4728
aI3347
aI1433
aI3939
aI6052
aI3692
aI5555
aI240
aI2030
aI1996
aI249
aI541
aI2222
aI30
aI278
aI3710
aI5524
aI2514
aI2351
aI273
aI1297
aI604
aI3083
aI216
aI2
aI3037
aI329
aI4726
aI1603
aI2549
aI2180
aI3288
aI951
aI775
aI4780
aI2661
aI753
aI687
aI3532
aI2268
aI1835
aI5402
aI4909
aI1632
aI2
aI4592
aI2687
aI2295
aI3285
aI1162
aI3597
aI4873
aI7231
aI3439
aI1294
aI661
aI1664
aI2505
aI0
aI1322
aI516
aI2851
aI2427
aI3784
aI233
aI201
aI2769
aI605
aI3542
aI2617
aI160
aI0
atp55
a(g1
(g5
S'\x00\x00\x00\x00\x00\xe2\xa4@'
p56
tp57
Rp58
S'ENVO:coastal water (n=151)'
p59
(lp60
I1181
aI5040
aI1579
aI12274
aI2169
aI2443
aI7588
aI3982
aI2977
aI1156
aI420
aI2151
aI2719
aI2522
aI2969
aI2823
aI3604
aI4299
aI4404
aI1460
aI1658
aI3153
aI5206
aI5773
aI1564
aI4085
aI1018
aI6775
aI1611
aI1730
aI5382
aI2281
aI0
aI5181
aI11359
aI3130
aI1433
aI2058
aI4983
aI1079
aI4442
aI3188
aI3267
aI4458
aI1602
aI2144
aI3812
aI778
aI2673
aI1397
aI3326
aI832
aI1701
aI3316
aI634
aI3257
aI4954
aI2371
aI14062
aI4458
aI1150
aI4234
aI3835
aI4832
aI1545
aI4116
aI1856
aI971
aI11411
aI1722
aI2265
aI1811
aI19
aI1768
aI6924
aI5511
aI496
aI8248
aI3347
aI1216
aI2576
aI1302
aI3003
aI801
aI1756
aI3045
aI1021
aI3189
aI114
aI2673
aI2593
aI1486
aI4261
aI4052
aI66
aI2352
aI4297
aI3978
aI2517
aI2178
aI2538
aI1809
aI6146
aI1
aI2412
aI350
aI920
aI3182
aI1916
aI1334
aI1483
aI1087
aI3232
aI1233
aI3522
aI3262
aI3958
aI3572
aI6093
aI5068
aI1561
aI3608
aI0
aI2711
aI2935
aI4304
aI3562
aI2310
aI3456
aI3713
aI5211
aI1465
aI4083
aI567
aI1
aI2845
aI1907
aI3615
aI5321
aI1894
aI4110
aI2585
aI2756
aI1923
aI2866
aI1177
aI1763
aI2493
aI706
aI3817
aI4838
atp61
a(g1
(g5
S'\x00\x00\x00\x00\x00V\xac@'
p62
tp63
Rp64
S'ENVO:fresh water (n=1729)'
p65
(lp66
I1687
aI10014
aI7343
aI5095
aI5662
aI6128
aI1558
aI2830
aI139
aI6691
aI6912
aI2489
aI1682
aI5544
aI13243
aI10201
aI5701
aI2590
aI3061
aI1219
aI6707
aI6426
aI10284
aI2223
aI4662
aI2831
aI3776
aI2035
aI6579
aI4856
aI4794
aI2061
aI3051
aI3015
aI5553
aI3376
aI1749
aI5180
aI1197
aI1169
aI1998
aI3086
aI12200
aI2432
aI6039
aI2259
aI1855
aI3776
aI1004
aI2998
aI3983
aI13
aI2865
aI5045
aI1127
aI2941
aI1732
aI2482
aI699
aI2396
aI8234
aI12379
aI2694
aI1359
aI1314
aI8437
aI1447
aI1384
aI16694
aI4632
aI7111
aI1552
aI2736
aI5619
aI10342
aI10650
aI4052
aI1221
aI10551
aI6319
aI3505
aI6646
aI1174
aI1384
aI3770
aI4036
aI3181
aI1478
aI2586
aI6446
aI5854
aI2962
aI12792
aI1086
aI2936
aI1493
aI4070
aI4749
aI2543
aI1142
aI2177
aI2401
aI7120
aI2576
aI1902
aI44
aI8433
aI2655
aI5068
aI3195
aI2407
aI5805
aI4822
aI1722
aI13445
aI3270
aI5693
aI2662
aI4527
aI1636
aI1763
aI5272
aI2733
aI1735
aI7435
aI1963
aI9917
aI6311
aI6235
aI6961
aI7494
aI847
aI4235
aI2953
aI8132
aI1785
aI10513
aI947
aI3100
aI7924
aI2304
aI868
aI3838
aI1230
aI3367
aI4108
aI40
aI3065
aI1305
aI8062
aI611
aI1182
aI1048
aI2956
aI979
aI826
aI568
aI6080
aI1821
aI5257
aI2201
aI3743
aI2441
aI3049
aI3526
aI8911
aI480
aI4780
aI3983
aI5634
aI4657
aI3166
aI2870
aI3408
aI3844
aI3480
aI2978
aI1481
aI3710
aI4300
aI1319
aI1673
aI59
aI1206
aI2901
aI4287
aI6658
aI6731
aI5451
aI3650
aI3148
aI5755
aI5104
aI2547
aI407
aI12042
aI1019
aI1010
aI4724
aI1951
aI1454
aI1528
aI2224
aI5064
aI3805
aI2552
aI7015
aI3679
aI1073
aI5325
aI13216
aI2827
aI2133
aI2614
aI2740
aI895
aI3011
aI1866
aI4425
aI9587
aI6024
aI7971
aI2988
aI3461
aI7234
aI1561
aI6491
aI2486
aI6246
aI7693
aI3604
aI6723
aI1575
aI2939
aI2285
aI1543
aI2254
aI14416
aI6142
aI3839
aI1582
aI2536
aI2017
aI4516
aI12852
aI1222
aI2710
aI2876
aI11947
aI5239
aI3852
aI1015
aI2147
aI15565
aI5173
aI936
aI3984
aI1484
aI3915
aI1448
aI4861
aI9587
aI3126
aI1148
aI8873
aI23258
aI694
aI5765
aI11382
aI2713
aI1747
aI7144
aI5693
aI3783
aI7420
aI3622
aI3447
aI2129
aI2206
aI2841
aI4023
aI14171
aI3936
aI9191
aI2537
aI2966
aI1642
aI5361
aI5454
aI4980
aI1942
aI19104
aI1533
aI136
aI13236
aI3607
aI6096
aI1954
aI8382
aI1846
aI15849
aI4222
aI5523
aI13191
aI1221
aI4606
aI8933
aI2205
aI1596
aI1091
aI2800
aI2519
aI3862
aI1492
aI3608
aI5746
aI932
aI3063
aI6484
aI2893
aI2779
aI1033
aI8183
aI5095
aI4820
aI4014
aI4946
aI1711
aI2212
aI7071
aI4596
aI862
aI2775
aI2863
aI990
aI10892
aI4328
aI20544
aI4112
aI5065
aI15363
aI1309
aI7528
aI1677
aI2503
aI3943
aI20188
aI4384
aI3129
aI6439
aI1926
aI2455
aI3652
aI2422
aI13368
aI1927
aI5190
aI6942
aI6650
aI700
aI10538
aI230
aI7169
aI22320
aI5840
aI2499
aI13093
aI1814
aI5831
aI4745
aI3073
aI1387
aI5362
aI1352
aI3808
aI5051
aI1660
aI4292
aI5607
aI2789
aI3391
aI3913
aI3627
aI3953
aI876
aI6751
aI4193
aI4945
aI11525
aI13344
aI1685
aI5746
aI2105
aI6926
aI12974
aI1620
aI805
aI12203
aI756
aI7704
aI7841
aI1843
aI1755
aI10351
aI7765
aI2441
aI11046
aI2730
aI0
aI2844
aI3408
aI1739
aI3139
aI1863
aI6234
aI3133
aI522
aI4042
aI3687
aI5909
aI8308
aI3307
aI4503
aI8579
aI4264
aI2955
aI1391
aI8178
aI1661
aI3434
aI1729
aI4870
aI3940
aI7941
aI3539
aI9202
aI3237
aI3384
aI2894
aI2026
aI7526
aI1415
aI5500
aI3194
aI6369
aI9448
aI4322
aI1307
aI1227
aI4650
aI4476
aI2438
aI4202
aI2229
aI1236
aI1167
aI6464
aI6375
aI3
aI6128
aI1283
aI3266
aI3223
aI2322
aI2588
aI3320
aI3541
aI2224
aI4694
aI540
aI2028
aI7111
aI2241
aI9359
aI5966
aI5588
aI3075
aI3947
aI5706
aI22903
aI4867
aI10698
aI3798
aI1632
aI2694
aI13527
aI1417
aI6925
aI11584
aI291
aI4014
aI719
aI3585
aI3506
aI7250
aI526
aI964
aI3063
aI2836
aI4706
aI5304
aI4040
aI6427
aI2541
aI5787
aI4421
aI4285
aI3034
aI5703
aI2515
aI592
aI6227
aI1646
aI1362
aI3817
aI804
aI4749
aI3239
aI947
aI2875
aI8272
aI16100
aI9008
aI6424
aI6272
aI1755
aI3533
aI3882
aI2640
aI2932
aI5190
aI961
aI1492
aI5133
aI5992
aI4278
aI8922
aI2853
aI1343
aI1361
aI1965
aI4351
aI3016
aI2062
aI5339
aI2633
aI6736
aI5026
aI3322
aI4900
aI2489
aI11484
aI7682
aI8907
aI1080
aI5902
aI5038
aI5847
aI1072
aI863
aI1027
aI5042
aI2469
aI1631
aI9322
aI2555
aI4612
aI1149
aI5
aI10960
aI6
aI2739
aI4256
aI9825
aI1481
aI1017
aI8035
aI14949
aI11567
aI3302
aI7544
aI13377
aI1758
aI908
aI717
aI2862
aI7977
aI6476
aI13315
aI10125
aI2769
aI909
aI901
aI1497
aI8873
aI4662
aI3295
aI1270
aI3023
aI2190
aI1347
aI1879
aI10072
aI4898
aI4161
aI2524
aI986
aI1381
aI0
aI3697
aI1298
aI1625
aI4799
aI1380
aI1678
aI11318
aI22902
aI3466
aI11082
aI3457
aI2804
aI3643
aI531
aI8343
aI11373
aI639
aI1420
aI3515
aI2644
aI1084
aI5125
aI4160
aI3711
aI4134
aI2044
aI2587
aI7981
aI5167
aI10017
aI5660
aI5527
aI1897
aI7633
aI4021
aI3357
aI1028
aI5674
aI822
aI10822
aI1677
aI4637
aI3443
aI3324
aI10340
aI3888
aI13884
aI760
aI2593
aI3120
aI1966
aI1700
aI8897
aI2133
aI10363
aI2603
aI2785
aI7573
aI5776
aI1195
aI6272
aI10840
aI4907
aI1397
aI4896
aI6059
aI1354
aI1227
aI2250
aI2849
aI9972
aI2240
aI12974
aI796
aI5220
aI2913
aI3561
aI4462
aI5860
aI21796
aI5469
aI6722
aI1539
aI3825
aI6475
aI3418
aI8296
aI6050
aI5657
aI2828
aI3243
aI5778
aI940
aI20955
aI4215
aI9608
aI1185
aI2239
aI6937
aI1396
aI5703
aI10946
aI82
aI2002
aI4156
aI5402
aI1778
aI4797
aI1231
aI1890
aI5107
aI1671
aI1240
aI15603
aI1529
aI3307
aI8255
aI3403
aI2217
aI23424
aI6148
aI3087
aI34851
aI4463
aI3598
aI8423
aI1022
aI0
aI5193
aI6367
aI5608
aI3315
aI2688
aI3504
aI3372
aI1709
aI1704
aI9943
aI1237
aI4330
aI19
aI5941
aI7711
aI2676
aI15666
aI5253
aI3464
aI5977
aI15122
aI2474
aI14319
aI3688
aI7603
aI3062
aI13620
aI2430
aI3226
aI3876
aI4068
aI4386
aI7343
aI2246
aI3204
aI11859
aI44
aI1721
aI2073
aI2187
aI14846
aI2099
aI3219
aI1060
aI1200
aI5129
aI1390
aI3103
aI5406
aI4183
aI3407
aI9147
aI1444
aI804
aI5135
aI10042
aI2665
aI2759
aI6195
aI4835
aI1288
aI10840
aI2572
aI17407
aI3190
aI8743
aI1389
aI3916
aI16713
aI2564
aI4918
aI4169
aI2889
aI11391
aI4759
aI5235
aI2775
aI8309
aI4412
aI2934
aI4988
aI2907
aI10764
aI84
aI0
aI4517
aI5003
aI3900
aI3080
aI3430
aI3667
aI2192
aI3332
aI0
aI1999
aI1047
aI3639
aI11053
aI1083
aI821
aI3363
aI3433
aI19663
aI4561
aI2109
aI784
aI4798
aI13192
aI5212
aI3593
aI720
aI6284
aI2273
aI8381
aI5596
aI1187
aI2528
aI3388
aI10411
aI4672
aI3982
aI4413
aI3574
aI778
aI1569
aI6454
aI1564
aI1115
aI1613
aI5694
aI3923
aI688
aI5392
aI989
aI4151
aI3393
aI3461
aI1572
aI2804
aI670
aI1133
aI19296
aI11033
aI2677
aI3535
aI3572
aI3811
aI1816
aI4084
aI14151
aI987
aI4961
aI4016
aI2227
aI4250
aI1582
aI3629
aI3289
aI6265
aI1125
aI2866
aI2386
aI1657
aI1953
aI2218
aI11536
aI2629
aI13833
aI5783
aI2370
aI8705
aI1359
aI8644
aI6933
aI3409
aI4350
aI8863
aI8998
aI4542
aI2663
aI1510
aI5144
aI5395
aI6679
aI2364
aI2116
aI1450
aI3439
aI4957
aI3933
aI1498
aI4470
aI2421
aI1148
aI2727
aI786
aI4276
aI2332
aI2708
aI6143
aI2991
aI5182
aI3373
aI4374
aI3504
aI1809
aI5750
aI4986
aI3716
aI4704
aI11795
aI2213
aI7839
aI1600
aI2625
aI5351
aI1510
aI1121
aI1264
aI5295
aI2584
aI1539
aI1047
aI899
aI4370
aI1333
aI4832
aI5924
aI3821
aI7577
aI3800
aI4113
aI689
aI6887
aI11121
aI2188
aI2846
aI2227
aI6495
aI3013
aI6887
aI3975
aI473
aI7318
aI8100
aI678
aI12842
aI22943
aI5306
aI1147
aI7958
aI582
aI4851
aI6172
aI5920
aI2
aI4040
aI5566
aI8716
aI5345
aI6554
aI1061
aI1312
aI2414
aI3031
aI779
aI2493
aI5120
aI6936
aI23337
aI9266
aI11376
aI4065
aI2396
aI4984
aI6225
aI1153
aI4119
aI5928
aI14395
aI1443
aI3711
aI3196
aI4862
aI3737
aI18425
aI7922
aI7084
aI1495
aI7729
aI4922
aI8226
aI4554
aI4382
aI2800
aI946
aI5840
aI4736
aI22036
aI960
aI5014
aI8521
aI1377
aI9567
aI10333
aI1528
aI2842
aI2085
aI7841
aI7135
aI3317
aI5139
aI6572
aI2812
aI11226
aI5027
aI3883
aI2789
aI1268
aI6409
aI9113
aI5252
aI3848
aI1400
aI8274
aI7067
aI3025
aI2182
aI2524
aI1521
aI5650
aI5275
aI2988
aI1463
aI3946
aI1751
aI276
aI3024
aI3061
aI20700
aI5185
aI1575
aI1427
aI3837
aI2065
aI11073
aI2735
aI5356
aI9218
aI1885
aI7632
aI3563
aI4435
aI1257
aI7401
aI1694
aI5136
aI7830
aI8087
aI12766
aI2182
aI13130
aI1464
aI3545
aI21423
aI2459
aI1521
aI9751
aI4673
aI1329
aI2740
aI2488
aI6574
aI5461
aI5936
aI2334
aI2538
aI15404
aI3032
aI867
aI5845
aI3587
aI3285
aI2242
aI12
aI8683
aI9035
aI828
aI1630
aI4706
aI3007
aI2677
aI3529
aI1720
aI4700
aI24734
aI9776
aI2052
aI4791
aI2441
aI1305
aI5500
aI606
aI6192
aI317
aI5430
aI5465
aI3824
aI3086
aI7010
aI7640
aI11844
aI5919
aI3609
aI13765
aI3562
aI3574
aI917
aI1524
aI2122
aI5248
aI10037
aI6515
aI2076
aI6016
aI2910
aI7403
aI8094
aI7567
aI1004
aI4685
aI58
aI10047
aI4804
aI1882
aI6678
aI0
aI5670
aI3033
aI20
aI5792
aI3169
aI1519
aI3060
aI3394
aI5578
aI1515
aI1580
aI2667
aI750
aI6060
aI3223
aI69
aI1532
aI4328
aI3330
aI5062
aI3073
aI1302
aI3741
aI1035
aI1737
aI7840
aI5282
aI2904
aI3054
aI5932
aI8147
aI1742
aI17106
aI6546
aI3158
aI5563
aI19296
aI1054
aI2545
aI4163
aI3978
aI5807
aI3501
aI1094
aI7834
aI3647
aI1675
aI15263
aI1395
aI4311
aI7240
aI3115
aI12229
aI2178
aI4495
aI8080
aI3803
aI3635
aI4622
aI1345
aI5861
aI8798
aI10323
aI5024
aI3767
aI5937
aI12673
aI4008
aI909
aI17378
aI4805
aI4199
aI9501
aI10045
aI5799
aI5980
aI8613
aI3656
aI7056
aI6436
aI3200
aI10721
aI3658
aI3320
aI2894
aI8807
aI3712
aI20486
aI4502
aI3873
aI4950
aI4155
aI3727
aI2204
aI4691
aI964
aI4626
aI2811
aI4948
aI5785
aI2049
aI6315
aI2894
aI884
aI1311
aI6498
aI2980
aI1538
aI5121
aI5670
aI1635
aI20626
aI2430
aI5226
aI3061
aI7724
aI14294
aI7270
aI2508
aI6188
aI4623
aI7807
aI3438
aI1742
aI11642
aI7827
aI17332
aI8033
aI5280
aI4307
aI3918
aI3817
aI3861
aI1035
aI2630
aI2451
aI913
aI2974
aI9717
aI11382
aI4565
aI3403
aI3318
aI3163
aI6457
aI1333
aI3528
aI425
aI2881
aI3710
aI7725
aI3042
aI4295
aI4822
aI2536
aI2298
aI1312
aI3295
aI5096
aI4157
aI4657
aI1841
aI2080
aI2989
aI3038
aI2662
aI1426
aI3126
aI4803
aI6206
aI4926
aI6443
aI1371
aI6698
aI2548
aI1079
aI1232
aI4113
aI3436
aI738
aI4
aI1395
aI1648
aI5862
aI2590
aI2077
aI10928
aI4806
aI6363
aI6163
aI2262
aI11486
aI1178
aI6107
aI3181
aI2810
aI6601
aI2179
aI3382
aI3377
aI804
aI11227
aI959
aI3299
aI4725
aI11591
aI3198
aI373
aI6706
aI6822
aI5906
aI13
aI1861
aI13978
aI4051
aI4931
aI4323
aI1766
aI1757
aI20194
aI3021
aI4475
aI1760
aI1429
aI3068
aI8494
aI4162
aI5715
aI1896
aI1799
aI3482
aI4787
aI7296
aI2536
aI1123
aI1735
aI1097
aI14180
aI2483
aI3364
aI6457
aI2440
aI4764
aI3955
aI5246
aI4105
aI2141
aI10427
aI7953
aI2485
aI2509
aI3264
aI599
aI785
aI4805
aI7028
aI24866
aI1589
aI4125
aI1507
aI4136
aI8465
aI5283
aI1689
aI2
aI11955
aI5271
aI496
aI3
aI3590
aI4099
aI4734
aI5642
aI6635
aI12562
aI3700
aI1647
aI1110
aI7737
aI5006
aI3043
aI3133
aI4760
aI2715
aI10076
aI2587
aI7022
aI22339
aI3556
aI3600
aI1881
aI5901
aI96
aI10665
aI1822
aI4769
aI2927
aI3096
aI5075
aI1406
aI1715
aI4726
aI4411
aI1643
aI11831
aI3797
aI3830
aI3339
aI2419
aI4886
aI4753
aI4589
aI2063
aI1739
aI3982
aI0
aI7040
aI4667
aI3339
aI3336
aI1699
aI7781
aI9760
aI3731
aI4953
aI17792
aI3375
aI4138
aI4151
aI2345
aI4301
aI5806
aI2834
aI3520
aI2517
aI7683
aI3489
aI2477
aI2642
aI6457
aI1723
aI2541
aI4508
aI4929
aI2340
aI3864
aI5317
aI1813
aI3363
aI999
aI6618
aI1047
aI3966
aI3669
aI5988
aI10510
aI5077
aI7854
aI3770
aI7497
aI7272
aI3138
aI3448
aI4115
aI4533
aI6889
aI7518
aI4625
aI3930
aI5805
aI9443
aI7381
aI3497
aI1044
aI2658
aI10943
aI1488
aI3679
aI2220
aI2042
aI1552
aI4464
aI2656
aI2257
aI6013
aI2397
aI1220
aI3261
aI747
aI2249
aI330
aI12578
aI2387
aI3163
aI1674
aI9320
aI4557
aI3645
aI2172
aI14378
aI3221
aI3306
aI2894
aI2658
aI4624
aI8000
aI4232
aI4089
aI1942
aI7345
aI1464
aI14480
aI1062
aI2103
aI3172
aI2371
aI2653
aI3884
aI25651
aI3396
aI2975
aI4604
aI1439
aI2947
aI4996
aI2452
aI1172
aI3245
aI3903
aI12365
aI17439
aI5889
aI3508
aI2203
aI11683
aI7833
aI2186
aI1155
aI8061
aI5194
aI441
aI3398
aI3654
aI4070
aI1130
aI6409
aI0
aI1695
aI9259
aI3663
aI7141
aI2570
aI2009
aI2860
aI8624
aI1703
aI6837
aI3613
aI9639
aI3474
aI894
aI6704
aI2543
aI6346
aI2252
aI1540
aI4126
aI9558
aI5000
aI2537
aI1345
aI3298
aI2232
aI3667
aI2933
aI1165
aI4476
aI4783
aI2407
aI2058
aI11142
aI3075
aI10511
aI1683
aI4040
aI5857
aI3763
aI2997
aI3794
aI11205
aI2089
aI4367
aI5140
aI4000
aI6796
aI2905
aI2680
aI11446
aI6748
aI0
aI13114
aI22
aI1503
aI15779
aI2
aI1317
aI2428
aI1269
aI5851
aI1143
aI3452
aI2984
aI1502
aI5717
aI2569
aI4204
aI1721
aI4579
aI4307
aI17938
aI3661
aI5235
aI5028
aI5450
aI2644
aI1401
aI2448
aI1990
aI9691
aI12676
aI998
aI7922
aI777
aI3917
aI6901
aI1674
aI615
aI5299
aI1099
aI3409
aI4510
aI1074
aI3103
aI7041
aI11441
aI3732
aI1482
aI4385
aI2416
aI1259
aI4654
aI2836
aI1580
aI8144
aI3349
atp67
a(g1
(g5
S'\x00\x00\x00\x00\x00\xae\xb2@'
p68
tp69
Rp70
S'ENVO:hypersaline water (n=2)'
p71
(lp72
I3417
aI6147
atp73
a(g1
(g5
S'\x00\x00\x00\x00\x80\x10\xb6@'
p74
tp75
Rp76
S'ENVO:carcass (n=2)'
p77
(lp78
I6197
aI5100
atp79
a(g1
(g5
S'\x00\x00\x00\x00\x80\x9c\xb6@'
p80
tp81
Rp82
S'ENVO:ice (n=12)'
p83
(lp84
I4437
aI5390
aI6187
aI4727
aI7418
aI9481
aI9989
aI0
aI24861
aI4915
aI6198
aI3479
atp85
a(g1
(g5
S'\x00\x00\x00\x00\x00\x96\xb8@'
p86
tp87
Rp88
S'ENVO:ocean water (n=446)'
p89
(lp90
I6995
aI7129
aI6552
aI3852
aI4694
aI260
aI3080
aI8312
aI2423
aI376
aI38
aI1625
aI5818
aI6815
aI7279
aI767
aI6684
aI4560
aI8188
aI2121
aI429
aI1748
aI8114
aI3336
aI7686
aI7117
aI3817
aI8371
aI2714
aI3099
aI9201
aI4317
aI6476
aI7239
aI1861
aI6898
aI5045
aI2660
aI7221
aI1926
aI6036
aI6657
aI9204
aI7412
aI7039
aI19705
aI1
aI572
aI8979
aI7177
aI6566
aI8299
aI5960
aI7543
aI859
aI7939
aI5395
aI7271
aI7594
aI7714
aI21926
aI6806
aI7289
aI1385
aI7989
aI8625
aI2
aI4026
aI6111
aI8145
aI8209
aI8197
aI8419
aI4533
aI2221
aI6284
aI5015
aI358
aI2321
aI6388
aI8867
aI8017
aI1260
aI7109
aI1915
aI6836
aI6749
aI3604
aI6656
aI6947
aI1282
aI5715
aI20
aI5791
aI870
aI2690
aI3075
aI3336
aI1754
aI6620
aI7428
aI3648
aI8936
aI5466
aI1812
aI6701
aI4
aI7627
aI8335
aI7082
aI4794
aI7407
aI3364
aI8558
aI5032
aI5596
aI5933
aI2694
aI3114
aI7222
aI8553
aI5399
aI6302
aI6873
aI7047
aI10115
aI6512
aI360
aI7498
aI7976
aI6538
aI2964
aI282
aI6775
aI7188
aI7821
aI932
aI10357
aI4173
aI7094
aI1097
aI6189
aI2985
aI2686
aI6347
aI464
aI8
aI7333
aI1
aI1
aI5197
aI9371
aI8053
aI5047
aI17251
aI6286
aI521
aI1749
aI0
aI192
aI6453
aI1330
aI4133
aI8116
aI5514
aI824
aI1650
aI8535
aI548
aI9259
aI2342
aI6925
aI986
aI8048
aI7728
aI8059
aI8350
aI7866
aI2954
aI8485
aI6690
aI2825
aI8047
aI6249
aI6881
aI6956
aI6179
aI0
aI7982
aI4240
aI7992
aI6623
aI11649
aI4713
aI3709
aI2491
aI8338
aI0
aI7889
aI8199
aI5787
aI4660
aI2850
aI18
aI3443
aI3260
aI7365
aI7093
aI8588
aI6186
aI8016
aI7327
aI11497
aI6085
aI4169
aI9325
aI4391
aI6058
aI1779
aI2066
aI1162
aI4439
aI938
aI8494
aI7555
aI6103
aI7737
aI8052
aI4875
aI208
aI3143
aI3577
aI1
aI6312
aI5229
aI7002
aI7594
aI6825
aI8569
aI7515
aI5181
aI7229
aI6068
aI26426
aI2339
aI4691
aI407
aI7556
aI9091
aI3306
aI3364
aI8232
aI5950
aI6707
aI7974
aI8354
aI7912
aI5235
aI12
aI4570
aI7514
aI7180
aI4654
aI11703
aI6033
aI5961
aI4233
aI8376
aI4109
aI8459
aI911
aI7615
aI1096
aI6699
aI193
aI2830
aI2378
aI5522
aI2467
aI1417
aI970
aI3190
aI6782
aI3226
aI6242
aI7900
aI5969
aI22402
aI1071
aI4165
aI7726
aI9717
aI5193
aI3881
aI6519
aI7096
aI8301
aI7532
aI5177
aI8169
aI4455
aI4429
aI1320
aI6257
aI7466
aI6640
aI8569
aI4719
aI7137
aI5881
aI1356
aI1290
aI6848
aI3565
aI6765
aI6989
aI194
aI7721
aI9142
aI6236
aI6924
aI8322
aI7699
aI6974
aI7607
aI7559
aI9638
aI8004
aI6464
aI6791
aI116
aI2407
aI9341
aI6447
aI7216
aI3535
aI3385
aI6478
aI6877
aI1335
aI11043
aI4006
aI1915
aI2216
aI5532
aI1188
aI1840
aI370
aI5566
aI418
aI10055
aI1040
aI380
aI9227
aI4153
aI6812
aI8436
aI6134
aI7769
aI7053
aI36
aI6709
aI7669
aI10446
aI10833
aI7194
aI5449
aI6026
aI6877
aI3890
aI9831
aI8356
aI9143
aI2861
aI7090
aI6405
aI2157
aI6338
aI2
aI1512
aI7509
aI3981
aI5898
aI14457
aI7
aI2
aI2497
aI9885
aI6595
aI7653
aI8293
aI3845
aI12660
aI1052
aI10106
aI7956
aI1185
aI7402
aI5622
aI3
aI6284
aI10767
aI1670
aI13318
aI5580
aI8361
aI3951
aI2253
aI6327
aI7721
aI8179
aI6916
aI7216
aI7506
aI6606
aI10234
aI10888
aI6651
aI1357
aI7441
aI10328
aI8274
aI8908
aI10129
aI5787
aI7940
aI7886
aI6712
aI8363
aI1
aI1318
aI10176
aI5011
aI3050
aI8388
aI7265
aI3391
aI3392
aI7885
aI553
aI1071
aI7324
aI8307
aI4364
aI4702
aI988
atp91
a(g1
(g5
S'\x00\x00\x00\x00\x00-\xbe@'
p92
tp93
Rp94
S'ENVO:water (n=13)'
p95
(lp96
I12301
aI6462
aI8350
aI5363
aI7769
aI7154
aI8163
aI7369
aI7582
aI9815
aI3616
aI9206
aI7725
atp97
a(g1
(g5
S'\x00\x00\x00\x00@K\xc1@'
p98
tp99
Rp100
S'ENVO:rock (n=28)'
p101
(lp102
I7200
aI6217
aI15303
aI8269
aI12969
aI8175
aI12918
aI13821
aI12018
aI17380
aI5066
aI5466
aI6591
aI11687
aI10368
aI7980
aI17253
aI9879
aI116
aI8398
aI5469
aI8668
aI5538
aI9041
aI10019
aI50
aI20640
aI16387
atp103
a(g1
(g5
S'\x00\x00\x00\x00@\xc3\xc1@'
p104
tp105
Rp106
S'ENVO:sediment (n=44)'
p107
(lp108
I4230
aI11847
aI4806
aI9755
aI9148
aI13989
aI9041
aI9780
aI9493
aI10878
aI3417
aI11762
aI10276
aI14214
aI11129
aI3323
aI11023
aI4902
aI4006
aI4280
aI3047
aI12330
aI4881
aI3643
aI3951
aI10734
aI2447
aI8969
aI4138
aI10691
aI8444
aI12071
aI4616
aI8822
aI43
aI9473
aI10787
aI12983
aI12199
aI3666
aI13162
aI3369
aI8425
aI11273
atp109
a(g1
(g5
S'\x00\x00\x00\x00\x00\x1a\xc4@'
p110
tp111
Rp112
S'ENVO:biofilm (n=370)'
p113
(lp114
I5776
aI10407
aI10869
aI9670
aI13657
aI9975
aI10567
aI11886
aI10852
aI8747
aI2
aI20367
aI11900
aI14630
aI13081
aI11188
aI11467
aI2719
aI9116
aI15925
aI5989
aI13783
aI10338
aI4644
aI9389
aI3681
aI13793
aI13101
aI9035
aI14794
aI16321
aI10581
aI10995
aI15636
aI5
aI8440
aI3084
aI3872
aI7136
aI7124
aI5988
aI16440
aI18060
aI9371
aI19454
aI8349
aI14451
aI10486
aI8427
aI16991
aI9110
aI4031
aI20328
aI7372
aI7336
aI12494
aI5282
aI12007
aI12072
aI3645
aI13057
aI9787
aI8905
aI8364
aI9887
aI14392
aI22534
aI7896
aI5916
aI3355
aI14941
aI5022
aI15599
aI12352
aI16731
aI10112
aI17929
aI9546
aI3225
aI13485
aI16995
aI12025
aI1
aI1
aI4548
aI9404
aI10298
aI12275
aI10273
aI16875
aI18843
aI11913
aI20513
aI7911
aI9305
aI7133
aI1
aI18748
aI10721
aI11020
aI9140
aI15130
aI14529
aI5652
aI13969
aI10666
aI12804
aI8203
aI12938
aI14098
aI9450
aI9877
aI11910
aI17756
aI33
aI3367
aI5203
aI11559
aI22463
aI9634
aI810
aI4274
aI5457
aI7901
aI22
aI16506
aI15067
aI20596
aI14522
aI8151
aI12397
aI5573
aI13586
aI10020
aI14160
aI9320
aI3480
aI7812
aI18263
aI8368
aI19420
aI33
aI12217
aI9190
aI4008
aI14403
aI17498
aI3
aI12310
aI15641
aI6669
aI15621
aI8819
aI4163
aI13822
aI8689
aI6371
aI10275
aI13482
aI10286
aI7524
aI15898
aI9098
aI15292
aI11095
aI11629
aI12562
aI12803
aI14410
aI13689
aI2186
aI10446
aI8404
aI16813
aI13848
aI11739
aI14226
aI9914
aI15972
aI16991
aI536
aI13081
aI9050
aI7610
aI8973
aI12775
aI13813
aI10984
aI5655
aI7022
aI5455
aI5883
aI11598
aI9409
aI8772
aI16469
aI7041
aI11357
aI12022
aI1422
aI8603
aI17657
aI7360
aI10892
aI3547
aI2940
aI6507
aI16322
aI3244
aI3091
aI4786
aI15094
aI13438
aI15129
aI12208
aI12822
aI5583
aI10613
aI11709
aI5919
aI6797
aI11546
aI10072
aI6480
aI368
aI18995
aI7302
aI18458
aI14994
aI419
aI17427
aI12786
aI12328
aI13410
aI18967
aI9400
aI12683
aI6002
aI13276
aI10434
aI5542
aI3628
aI5402
aI463
aI2940
aI7414
aI3240
aI11331
aI5015
aI18216
aI17986
aI9422
aI508
aI1389
aI9812
aI1443
aI15778
aI7354
aI14694
aI8408
aI8109
aI11503
aI14865
aI10836
aI17878
aI8
aI16608
aI15077
aI1929
aI16539
aI14660
aI14666
aI5709
aI8255
aI15653
aI9269
aI14423
aI14635
aI10264
aI19892
aI9633
aI9682
aI62
aI6104
aI7596
aI13595
aI13047
aI12092
aI5326
aI2729
aI16984
aI6438
aI4869
aI8611
aI12953
aI2803
aI15119
aI20343
aI7338
aI9332
aI3782
aI10284
aI6486
aI18961
aI7635
aI4611
aI13731
aI7027
aI5819
aI11272
aI11293
aI15886
aI17115
aI13077
aI15846
aI9647
aI3509
aI21244
aI16881
aI10770
aI11600
aI17085
aI8457
aI9627
aI6241
aI15982
aI13426
aI3650
aI9565
aI15846
aI17784
aI9293
aI15421
aI4697
aI13261
aI8714
aI11701
aI9888
aI11362
aI14728
aI3
aI11859
aI9218
aI12480
aI8424
aI13954
aI11136
aI3778
aI2817
aI10914
aI14788
aI17444
aI6655
aI9816
aI1
aI12376
aI4081
aI13148
aI12613
aI19146
aI1
aI11072
aI9026
aI8969
aI777
aI3802
aI9071
aI7380
aI10125
aI17053
atp115
a(g1
(g5
S'\x00\x00\x00\x00\x00\x93\xc7@'
p116
tp117
Rp118
S'ENVO:marine sediment (n=255)'
p119
(lp120
I22775
aI3127
aI25376
aI16267
aI16250
aI11958
aI1182
aI7155
aI16093
aI14951
aI10193
aI17566
aI15344
aI11126
aI9516
aI6469
aI23024
aI6547
aI3332
aI9557
aI6396
aI2514
aI5088
aI568
aI15379
aI15972
aI4968
aI20044
aI19652
aI5936
aI17817
aI5292
aI4685
aI7788
aI16737
aI4280
aI13139
aI12672
aI23865
aI7
aI5862
aI4415
aI10194
aI12294
aI773
aI11720
aI3733
aI5861
aI0
aI12841
aI6501
aI2386
aI17485
aI7667
aI14034
aI4714
aI9646
aI11428
aI13607
aI14784
aI15174
aI2626
aI17679
aI18125
aI8880
aI23165
aI11396
aI2175
aI17589
aI1147
aI4463
aI13216
aI14620
aI8881
aI18131
aI13737
aI15194
aI973
aI9617
aI3246
aI8885
aI934
aI10932
aI24615
aI12296
aI2583
aI14271
aI6315
aI21852
aI10584
aI18962
aI12767
aI8874
aI17942
aI22943
aI9813
aI13441
aI15958
aI2815
aI18248
aI19308
aI14401
aI18147
aI2240
aI4160
aI26997
aI18853
aI12617
aI9366
aI15508
aI6051
aI10742
aI12129
aI19466
aI12070
aI18428
aI8048
aI9596
aI4899
aI16364
aI7637
aI17463
aI989
aI12006
aI9105
aI1763
aI11778
aI13406
aI19749
aI2802
aI21566
aI12853
aI9075
aI6131
aI19365
aI6015
aI3114
aI4329
aI16504
aI13489
aI13715
aI9913
aI13997
aI5684
aI12921
aI5771
aI9402
aI6339
aI23444
aI14264
aI2607
aI11830
aI14623
aI13352
aI17188
aI15999
aI23700
aI18709
aI18991
aI1394
aI11245
aI10580
aI5128
aI13293
aI19210
aI19916
aI21297
aI18207
aI17163
aI12811
aI11314
aI9803
aI13802
aI17265
aI17039
aI13870
aI14046
aI15715
aI14172
aI11323
aI11315
aI2445
aI13045
aI12387
aI12796
aI11844
aI5988
aI2569
aI6168
aI2216
aI4
aI22846
aI6389
aI25771
aI21547
aI7425
aI15578
aI16247
aI11627
aI0
aI3611
aI1829
aI24137
aI2462
aI12768
aI24387
aI6097
aI12506
aI17975
aI4
aI3664
aI4242
aI24709
aI5347
aI16644
aI16522
aI6500
aI19888
aI4449
aI12761
aI19505
aI3569
aI15184
aI16793
aI6775
aI12491
aI15035
aI12124
aI8111
aI22440
aI8
aI19969
aI2648
aI13408
aI12382
aI3852
aI7741
aI9636
aI15006
aI2709
aI5898
aI37454
aI18757
aI5557
aI15009
aI14498
aI9791
aI6587
aI4950
aI20016
aI19894
aI4249
aI7
aI15091
aI16607
atp121
a(g1
(g5
S'\x00\x00\x00\x00\x00\xe5\xc7@'
p122
tp123
Rp124
S'ENVO:soil (n=933)'
p125
(lp126
I18773
aI13866
aI3223
aI9878
aI14620
aI2641
aI447
aI1274
aI10813
aI21622
aI20466
aI20417
aI6349
aI15408
aI24428
aI2183
aI1635
aI17640
aI19855
aI6198
aI16816
aI22330
aI21428
aI18646
aI17530
aI9135
aI21075
aI19520
aI14956
aI7660
aI4377
aI14965
aI16435
aI1
aI11553
aI4899
aI20210
aI20392
aI1033
aI1134
aI1066
aI92
aI20677
aI5711
aI4374
aI11179
aI17654
aI11005
aI19113
aI4997
aI20732
aI7711
aI5070
aI22007
aI5497
aI8969
aI19408
aI10507
aI1804
aI21003
aI18495
aI234
aI280
aI3
aI26609
aI402
aI3961
aI2102
aI1900
aI7471
aI19308
aI11700
aI23826
aI14
aI6062
aI11799
aI7411
aI13053
aI17194
aI19256
aI10886
aI539
aI9492
aI13089
aI15018
aI16405
aI21893
aI6317
aI9593
aI5680
aI18792
aI15334
aI28855
aI12961
aI15323
aI20259
aI6630
aI361
aI22581
aI219
aI512
aI14274
aI23520
aI16603
aI7237
aI23346
aI11250
aI15176
aI24827
aI4133
aI12583
aI24735
aI16602
aI145
aI22720
aI19112
aI10410
aI4143
aI7590
aI13573
aI1
aI4115
aI12523
aI16114
aI16788
aI17412
aI17686
aI5947
aI6644
aI5884
aI21391
aI1608
aI1946
aI3
aI14244
aI14135
aI15471
aI5826
aI8570
aI25447
aI24707
aI6166
aI13302
aI2224
aI9
aI736
aI3517
aI15978
aI10801
aI18308
aI12394
aI13258
aI20534
aI220
aI5316
aI17913
aI18998
aI10441
aI4829
aI29
aI24463
aI20758
aI18200
aI3422
aI22944
aI33
aI18631
aI15900
aI159
aI6581
aI3632
aI2612
aI7471
aI2068
aI10475
aI11819
aI20014
aI163
aI19131
aI103
aI17873
aI2
aI13488
aI139
aI19173
aI21212
aI21734
aI13285
aI22738
aI10559
aI3721
aI25368
aI264
aI11272
aI14403
aI14909
aI23518
aI18133
aI23438
aI20878
aI23407
aI10789
aI6097
aI8430
aI6933
aI21776
aI16706
aI10566
aI22794
aI17474
aI23384
aI18476
aI23560
aI14526
aI11706
aI5858
aI6478
aI17589
aI152
aI6
aI11309
aI12265
aI13459
aI29096
aI4640
aI9012
aI6057
aI14755
aI7
aI29061
aI17975
aI51069
aI12677
aI13095
aI16214
aI17565
aI5610
aI12556
aI14973
aI19970
aI1437
aI19065
aI23379
aI9120
aI531
aI27722
aI22339
aI16292
aI2659
aI20042
aI193
aI20772
aI2786
aI4975
aI7710
aI14011
aI15287
aI4685
aI15899
aI16804
aI15096
aI14936
aI3582
aI21
aI965
aI2
aI6305
aI19730
aI17928
aI14879
aI8378
aI3319
aI136
aI12748
aI1562
aI19454
aI6086
aI18315
aI18833
aI11887
aI947
aI9660
aI27447
aI22398
aI17666
aI1
aI6229
aI20893
aI22695
aI23713
aI408
aI21310
aI15694
aI17036
aI8605
aI23875
aI4719
aI299
aI9086
aI15382
aI22325
aI18255
aI18928
aI4599
aI13993
aI195
aI24388
aI10727
aI19649
aI21254
aI19025
aI27637
aI19406
aI25577
aI13087
aI13254
aI2913
aI9296
aI2105
aI289
aI5182
aI6425
aI357
aI7897
aI6043
aI4355
aI7469
aI18332
aI13413
aI18774
aI7640
aI14739
aI35810
aI2264
aI223
aI16469
aI35494
aI19356
aI23316
aI5008
aI24965
aI16075
aI8212
aI16788
aI20863
aI17399
aI4834
aI450
aI7729
aI16130
aI2678
aI16504
aI27130
aI13991
aI23773
aI964
aI19978
aI2920
aI1186
aI3414
aI3672
aI21916
aI4105
aI15339
aI6068
aI13585
aI19232
aI3931
aI7450
aI14332
aI149
aI10550
aI2957
aI18263
aI6173
aI20066
aI655
aI389
aI19870
aI16913
aI15575
aI21254
aI23363
aI11341
aI15337
aI10959
aI5069
aI7472
aI18909
aI21246
aI3738
aI21439
aI26804
aI14759
aI21575
aI4
aI11472
aI4031
aI5872
aI17155
aI13592
aI24559
aI19263
aI4093
aI21657
aI17225
aI3005
aI11175
aI21099
aI18878
aI14387
aI505
aI21150
aI3057
aI2046
aI10137
aI24240
aI836
aI21501
aI142
aI18729
aI947
aI15008
aI13237
aI6148
aI16434
aI20268
aI2080
aI8758
aI0
aI8183
aI27
aI18831
aI28438
aI0
aI4338
aI17395
aI14959
aI28230
aI16470
aI19403
aI15595
aI14977
aI248
aI2334
aI4213
aI5130
aI7918
aI2
aI14747
aI19320
aI3581
aI11026
aI9847
aI5199
aI3152
aI20516
aI7638
aI6
aI15477
aI16972
aI22912
aI18488
aI10812
aI3
aI24694
aI15153
aI3481
aI17696
aI26852
aI2739
aI19448
aI15609
aI18495
aI21002
aI14513
aI405
aI3
aI17503
aI20120
aI13886
aI9865
aI9765
aI9134
aI24852
aI22773
aI4939
aI8823
aI6278
aI19363
aI21465
aI1617
aI16777
aI5913
aI5122
aI131
aI23349
aI7145
aI24111
aI0
aI21479
aI18356
aI15291
aI12751
aI15906
aI16287
aI5506
aI22917
aI14284
aI24493
aI21383
aI17584
aI7477
aI7473
aI12908
aI7844
aI18480
aI26498
aI16553
aI11744
aI20029
aI230
aI138
aI3581
aI14501
aI29646
aI2
aI20355
aI19564
aI135
aI9260
aI15848
aI24474
aI14
aI4957
aI1017
aI15810
aI16962
aI16776
aI18915
aI10111
aI10784
aI14211
aI32020
aI27042
aI19861
aI8594
aI4431
aI1515
aI17823
aI16163
aI10226
aI8188
aI2212
aI3124
aI22047
aI4455
aI19989
aI13554
aI18295
aI313
aI24634
aI6865
aI9553
aI14647
aI407
aI7058
aI21163
aI2388
aI11766
aI22031
aI20122
aI24104
aI6620
aI21124
aI21446
aI9368
aI23222
aI301
aI15994
aI17695
aI54
aI3558
aI11918
aI11423
aI374
aI16139
aI4809
aI17729
aI276
aI22803
aI0
aI14410
aI6024
aI8113
aI55
aI12841
aI5581
aI6040
aI20485
aI836
aI4672
aI19620
aI12261
aI19195
aI10946
aI23896
aI2497
aI4588
aI17748
aI11911
aI15982
aI10001
aI5143
aI1947
aI19884
aI12813
aI6439
aI16399
aI21616
aI15747
aI15433
aI20109
aI5485
aI10366
aI10034
aI5369
aI633
aI1386
aI17565
aI19703
aI15758
aI18491
aI8447
aI13285
aI18855
aI23792
aI511
aI6892
aI3552
aI21725
aI18017
aI5653
aI8869
aI22333
aI10305
aI22785
aI15639
aI9294
aI21028
aI6160
aI6365
aI22114
aI595
aI16385
aI4911
aI25486
aI14990
aI7983
aI5407
aI24182
aI14819
aI1161
aI12695
aI13473
aI20124
aI4941
aI4101
aI4
aI11728
aI12234
aI28758
aI5001
aI19115
aI12901
aI14893
aI21866
aI12713
aI12841
aI12308
aI11660
aI16988
aI14100
aI4774
aI5795
aI21853
aI8714
aI3378
aI21543
aI2417
aI19623
aI1621
aI3748
aI20817
aI5192
aI0
aI13241
aI20508
aI5550
aI20272
aI19149
aI27604
aI182
aI15427
aI10862
aI22683
aI708
aI24132
aI22265
aI772
aI21574
aI19847
aI9118
aI22005
aI5281
aI22925
aI23306
aI5536
aI4843
aI3966
aI9836
aI4814
aI25391
aI16265
aI9718
aI3
aI2283
aI2801
aI28391
aI129
aI1
aI3035
aI15763
aI362
aI177
aI12399
aI797
aI6647
aI15937
aI20903
aI7529
aI917
aI27825
aI22053
aI2137
aI7672
aI25297
aI19536
aI17643
aI18267
aI4876
aI7147
aI9112
aI18234
aI6652
aI14155
aI20339
aI7606
aI7000
aI827
aI23757
aI14010
aI16711
aI6882
aI14054
aI5313
aI18971
aI16530
aI2392
aI21875
aI24375
aI12038
aI12563
aI3936
aI260
aI21563
aI19352
aI1073
aI7206
aI1664
aI13221
aI276
aI26863
aI9985
aI2049
aI17075
aI5484
aI2037
aI19757
aI3891
aI4135
aI10498
aI7269
aI22350
aI10931
aI13305
aI79
aI3
aI344
aI5132
aI20833
aI2435
aI22750
aI14005
aI32
aI19250
aI17109
aI22230
aI1233
aI4343
aI717
aI20138
aI16067
aI2506
aI4928
aI7378
aI97
aI18750
aI1807
aI2846
aI24522
aI3
aI4439
aI7146
aI4896
aI6630
aI4746
aI21615
aI32229
aI4336
aI15084
aI821
aI4664
aI1252
aI4352
aI11197
aI3399
aI21233
aI5758
aI852
aI183
aI5833
aI2952
aI13597
aI13440
aI20966
aI4120
aI8896
aI9760
aI35
aI18660
aI265
aI2636
aI20823
aI0
aI25923
aI22947
aI15499
aI19063
aI16109
aI3752
aI15900
aI366
aI13937
aI9698
aI7332
aI20507
aI24009
aI17918
aI9025
aI3391
aI17557
aI14383
aI10814
aI22650
aI294
aI4
aI4197
aI7623
aI10
aI18586
aI18937
aI11543
aI18224
aI18291
aI18492
aI20337
aI9350
aI525
aI5553
aI24757
aI3523
aI19174
aI9625
aI126
aI6656
aI15249
aI15221
aI14666
aI19532
aI3375
aI53
aI338
aI15484
aI15345
aI22680
aI9956
aI16888
aI22696
aI12859
aI14235
aI7329
aI17375
aI14487
aI11938
aI7867
aI2104
aI15604
aI163
aI17636
aI3992
aI4629
aI23126
aI330
aI7615
aI19960
aI2504
aI243
aI2838
aI3991
aI11670
aI7069
aI18227
atp127
a.